
fill2.out:     formato del file elf32-or1k


Disassemblamento della sezione .vectors:

00000000 <_or1k_reset-0x100>:
	...

00000100 <_or1k_reset>:
     100:	18 00 00 00 	l.movhi r0,0x0
     104:	18 20 00 00 	l.movhi r1,0x0
     108:	18 40 00 00 	l.movhi r2,0x0
     10c:	18 60 00 00 	l.movhi r3,0x0
     110:	18 80 00 00 	l.movhi r4,0x0
     114:	18 a0 00 00 	l.movhi r5,0x0
     118:	18 c0 00 00 	l.movhi r6,0x0
     11c:	18 e0 00 00 	l.movhi r7,0x0
     120:	19 00 00 00 	l.movhi r8,0x0
     124:	19 20 00 00 	l.movhi r9,0x0
     128:	19 40 00 00 	l.movhi r10,0x0
     12c:	19 60 00 00 	l.movhi r11,0x0
     130:	19 80 00 00 	l.movhi r12,0x0
     134:	19 a0 00 00 	l.movhi r13,0x0
     138:	19 c0 00 00 	l.movhi r14,0x0
     13c:	19 e0 00 00 	l.movhi r15,0x0
     140:	1a 00 00 00 	l.movhi r16,0x0
     144:	1a 20 00 00 	l.movhi r17,0x0
     148:	1a 40 00 00 	l.movhi r18,0x0
     14c:	1a 60 00 00 	l.movhi r19,0x0
     150:	1a 80 00 00 	l.movhi r20,0x0
     154:	1a a0 00 00 	l.movhi r21,0x0
     158:	1a c0 00 00 	l.movhi r22,0x0
     15c:	1a e0 00 00 	l.movhi r23,0x0
     160:	1b 00 00 00 	l.movhi r24,0x0
     164:	1b 20 00 00 	l.movhi r25,0x0
     168:	1b 40 00 00 	l.movhi r26,0x0
     16c:	1b 60 00 00 	l.movhi r27,0x0
     170:	1b 80 00 00 	l.movhi r28,0x0
     174:	1b a0 00 00 	l.movhi r29,0x0
     178:	1b c0 00 00 	l.movhi r30,0x0
     17c:	1b e0 00 00 	l.movhi r31,0x0
     180:	a8 20 00 01 	l.ori r1,r0,0x1
     184:	c0 00 08 11 	l.mtspr r0,r1,0x11
     188:	c1 40 00 00 	l.mtspr r0,r0,0x5000
     18c:	18 80 00 00 	l.movhi r4,0x0
     190:	a8 84 20 30 	l.ori r4,r4,0x2030
     194:	44 00 20 00 	l.jr r4
     198:	15 00 00 00 	l.nop 0x0
	...
     200:	d4 00 08 04 	l.sw 4(r0),r1
     204:	18 20 00 01 	l.movhi r1,0x1
     208:	a8 21 2e fc 	l.ori r1,r1,0x2efc
     20c:	84 21 00 00 	l.lwz r1,0(r1)
     210:	9c 21 ff 00 	l.addi r1,r1,-256
     214:	d4 01 18 0c 	l.sw 12(r1),r3
     218:	84 60 00 04 	l.lwz r3,4(r0)
     21c:	d4 01 18 04 	l.sw 4(r1),r3
     220:	d4 01 20 10 	l.sw 16(r1),r4
     224:	b4 60 00 10 	l.mfspr r3,r0,0x10
     228:	00 00 34 c6 	l.j d540 <_or1k_exception_handler>
     22c:	b4 80 00 20 	l.mfspr r4,r0,0x20
	...
     300:	d4 00 08 04 	l.sw 4(r0),r1
     304:	18 20 00 01 	l.movhi r1,0x1
     308:	a8 21 2e fc 	l.ori r1,r1,0x2efc
     30c:	84 21 00 00 	l.lwz r1,0(r1)
     310:	9c 21 ff 00 	l.addi r1,r1,-256
     314:	d4 01 18 0c 	l.sw 12(r1),r3
     318:	84 60 00 04 	l.lwz r3,4(r0)
     31c:	d4 01 18 04 	l.sw 4(r1),r3
     320:	d4 01 20 10 	l.sw 16(r1),r4
     324:	b4 60 00 10 	l.mfspr r3,r0,0x10
     328:	00 00 34 86 	l.j d540 <_or1k_exception_handler>
     32c:	b4 80 00 20 	l.mfspr r4,r0,0x20
	...
     400:	d4 00 08 04 	l.sw 4(r0),r1
     404:	18 20 00 01 	l.movhi r1,0x1
     408:	a8 21 2e fc 	l.ori r1,r1,0x2efc
     40c:	84 21 00 00 	l.lwz r1,0(r1)
     410:	9c 21 ff 00 	l.addi r1,r1,-256
     414:	d4 01 18 0c 	l.sw 12(r1),r3
     418:	84 60 00 04 	l.lwz r3,4(r0)
     41c:	d4 01 18 04 	l.sw 4(r1),r3
     420:	d4 01 20 10 	l.sw 16(r1),r4
     424:	b4 60 00 10 	l.mfspr r3,r0,0x10
     428:	00 00 34 46 	l.j d540 <_or1k_exception_handler>
     42c:	b4 80 00 20 	l.mfspr r4,r0,0x20
	...
     500:	d4 00 08 04 	l.sw 4(r0),r1
     504:	18 20 00 01 	l.movhi r1,0x1
     508:	a8 21 2e fc 	l.ori r1,r1,0x2efc
     50c:	84 21 00 00 	l.lwz r1,0(r1)
     510:	9c 21 ff 00 	l.addi r1,r1,-256
     514:	d4 01 18 0c 	l.sw 12(r1),r3
     518:	84 60 00 04 	l.lwz r3,4(r0)
     51c:	d4 01 18 04 	l.sw 4(r1),r3
     520:	d4 01 20 10 	l.sw 16(r1),r4
     524:	b4 60 00 10 	l.mfspr r3,r0,0x10
     528:	00 00 34 06 	l.j d540 <_or1k_exception_handler>
     52c:	b4 80 00 20 	l.mfspr r4,r0,0x20
	...
     600:	d4 00 08 04 	l.sw 4(r0),r1
     604:	18 20 00 01 	l.movhi r1,0x1
     608:	a8 21 2e fc 	l.ori r1,r1,0x2efc
     60c:	84 21 00 00 	l.lwz r1,0(r1)
     610:	9c 21 ff 00 	l.addi r1,r1,-256
     614:	d4 01 18 0c 	l.sw 12(r1),r3
     618:	84 60 00 04 	l.lwz r3,4(r0)
     61c:	d4 01 18 04 	l.sw 4(r1),r3
     620:	d4 01 20 10 	l.sw 16(r1),r4
     624:	b4 60 00 10 	l.mfspr r3,r0,0x10
     628:	00 00 33 c6 	l.j d540 <_or1k_exception_handler>
     62c:	b4 80 00 20 	l.mfspr r4,r0,0x20
	...
     700:	d4 00 08 04 	l.sw 4(r0),r1
     704:	18 20 00 01 	l.movhi r1,0x1
     708:	a8 21 2e fc 	l.ori r1,r1,0x2efc
     70c:	84 21 00 00 	l.lwz r1,0(r1)
     710:	9c 21 ff 00 	l.addi r1,r1,-256
     714:	d4 01 18 0c 	l.sw 12(r1),r3
     718:	84 60 00 04 	l.lwz r3,4(r0)
     71c:	d4 01 18 04 	l.sw 4(r1),r3
     720:	d4 01 20 10 	l.sw 16(r1),r4
     724:	b4 60 00 10 	l.mfspr r3,r0,0x10
     728:	00 00 33 86 	l.j d540 <_or1k_exception_handler>
     72c:	b4 80 00 20 	l.mfspr r4,r0,0x20
	...
     800:	d4 00 08 04 	l.sw 4(r0),r1
     804:	18 20 00 01 	l.movhi r1,0x1
     808:	a8 21 2e fc 	l.ori r1,r1,0x2efc
     80c:	84 21 00 00 	l.lwz r1,0(r1)
     810:	9c 21 ff 00 	l.addi r1,r1,-256
     814:	d4 01 18 0c 	l.sw 12(r1),r3
     818:	84 60 00 04 	l.lwz r3,4(r0)
     81c:	d4 01 18 04 	l.sw 4(r1),r3
     820:	d4 01 20 10 	l.sw 16(r1),r4
     824:	b4 60 00 10 	l.mfspr r3,r0,0x10
     828:	00 00 33 46 	l.j d540 <_or1k_exception_handler>
     82c:	b4 80 00 20 	l.mfspr r4,r0,0x20
	...
     900:	d4 00 08 04 	l.sw 4(r0),r1
     904:	18 20 00 01 	l.movhi r1,0x1
     908:	a8 21 2e fc 	l.ori r1,r1,0x2efc
     90c:	84 21 00 00 	l.lwz r1,0(r1)
     910:	9c 21 ff 00 	l.addi r1,r1,-256
     914:	d4 01 18 0c 	l.sw 12(r1),r3
     918:	84 60 00 04 	l.lwz r3,4(r0)
     91c:	d4 01 18 04 	l.sw 4(r1),r3
     920:	d4 01 20 10 	l.sw 16(r1),r4
     924:	b4 60 00 10 	l.mfspr r3,r0,0x10
     928:	00 00 33 06 	l.j d540 <_or1k_exception_handler>
     92c:	b4 80 00 20 	l.mfspr r4,r0,0x20
	...
     a00:	d4 00 08 04 	l.sw 4(r0),r1
     a04:	18 20 00 01 	l.movhi r1,0x1
     a08:	a8 21 2e fc 	l.ori r1,r1,0x2efc
     a0c:	84 21 00 00 	l.lwz r1,0(r1)
     a10:	9c 21 ff 00 	l.addi r1,r1,-256
     a14:	d4 01 18 0c 	l.sw 12(r1),r3
     a18:	84 60 00 04 	l.lwz r3,4(r0)
     a1c:	d4 01 18 04 	l.sw 4(r1),r3
     a20:	d4 01 20 10 	l.sw 16(r1),r4
     a24:	b4 60 00 10 	l.mfspr r3,r0,0x10
     a28:	00 00 32 c6 	l.j d540 <_or1k_exception_handler>
     a2c:	b4 80 00 20 	l.mfspr r4,r0,0x20
	...
     b00:	d4 00 08 04 	l.sw 4(r0),r1
     b04:	18 20 00 01 	l.movhi r1,0x1
     b08:	a8 21 2e fc 	l.ori r1,r1,0x2efc
     b0c:	84 21 00 00 	l.lwz r1,0(r1)
     b10:	9c 21 ff 00 	l.addi r1,r1,-256
     b14:	d4 01 18 0c 	l.sw 12(r1),r3
     b18:	84 60 00 04 	l.lwz r3,4(r0)
     b1c:	d4 01 18 04 	l.sw 4(r1),r3
     b20:	d4 01 20 10 	l.sw 16(r1),r4
     b24:	b4 60 00 10 	l.mfspr r3,r0,0x10
     b28:	00 00 32 86 	l.j d540 <_or1k_exception_handler>
     b2c:	b4 80 00 20 	l.mfspr r4,r0,0x20
	...
     c00:	d4 00 08 04 	l.sw 4(r0),r1
     c04:	18 20 00 01 	l.movhi r1,0x1
     c08:	a8 21 2e fc 	l.ori r1,r1,0x2efc
     c0c:	84 21 00 00 	l.lwz r1,0(r1)
     c10:	9c 21 ff 00 	l.addi r1,r1,-256
     c14:	d4 01 18 0c 	l.sw 12(r1),r3
     c18:	84 60 00 04 	l.lwz r3,4(r0)
     c1c:	d4 01 18 04 	l.sw 4(r1),r3
     c20:	d4 01 20 10 	l.sw 16(r1),r4
     c24:	b4 60 00 10 	l.mfspr r3,r0,0x10
     c28:	00 00 32 46 	l.j d540 <_or1k_exception_handler>
     c2c:	b4 80 00 20 	l.mfspr r4,r0,0x20
	...
     d00:	d4 00 08 04 	l.sw 4(r0),r1
     d04:	18 20 00 01 	l.movhi r1,0x1
     d08:	a8 21 2e fc 	l.ori r1,r1,0x2efc
     d0c:	84 21 00 00 	l.lwz r1,0(r1)
     d10:	9c 21 ff 00 	l.addi r1,r1,-256
     d14:	d4 01 18 0c 	l.sw 12(r1),r3
     d18:	84 60 00 04 	l.lwz r3,4(r0)
     d1c:	d4 01 18 04 	l.sw 4(r1),r3
     d20:	d4 01 20 10 	l.sw 16(r1),r4
     d24:	b4 60 00 10 	l.mfspr r3,r0,0x10
     d28:	00 00 32 06 	l.j d540 <_or1k_exception_handler>
     d2c:	b4 80 00 20 	l.mfspr r4,r0,0x20
	...
     e00:	d4 00 08 04 	l.sw 4(r0),r1
     e04:	18 20 00 01 	l.movhi r1,0x1
     e08:	a8 21 2e fc 	l.ori r1,r1,0x2efc
     e0c:	84 21 00 00 	l.lwz r1,0(r1)
     e10:	9c 21 ff 00 	l.addi r1,r1,-256
     e14:	d4 01 18 0c 	l.sw 12(r1),r3
     e18:	84 60 00 04 	l.lwz r3,4(r0)
     e1c:	d4 01 18 04 	l.sw 4(r1),r3
     e20:	d4 01 20 10 	l.sw 16(r1),r4
     e24:	b4 60 00 10 	l.mfspr r3,r0,0x10
     e28:	00 00 31 c6 	l.j d540 <_or1k_exception_handler>
     e2c:	b4 80 00 20 	l.mfspr r4,r0,0x20
	...
     f00:	d4 00 08 04 	l.sw 4(r0),r1
     f04:	18 20 00 01 	l.movhi r1,0x1
     f08:	a8 21 2e fc 	l.ori r1,r1,0x2efc
     f0c:	84 21 00 00 	l.lwz r1,0(r1)
     f10:	9c 21 ff 00 	l.addi r1,r1,-256
     f14:	d4 01 18 0c 	l.sw 12(r1),r3
     f18:	84 60 00 04 	l.lwz r3,4(r0)
     f1c:	d4 01 18 04 	l.sw 4(r1),r3
     f20:	d4 01 20 10 	l.sw 16(r1),r4
     f24:	b4 60 00 10 	l.mfspr r3,r0,0x10
     f28:	00 00 31 86 	l.j d540 <_or1k_exception_handler>
     f2c:	b4 80 00 20 	l.mfspr r4,r0,0x20
	...
    1000:	d4 00 08 04 	l.sw 4(r0),r1
    1004:	18 20 00 01 	l.movhi r1,0x1
    1008:	a8 21 2e fc 	l.ori r1,r1,0x2efc
    100c:	84 21 00 00 	l.lwz r1,0(r1)
    1010:	9c 21 ff 00 	l.addi r1,r1,-256
    1014:	d4 01 18 0c 	l.sw 12(r1),r3
    1018:	84 60 00 04 	l.lwz r3,4(r0)
    101c:	d4 01 18 04 	l.sw 4(r1),r3
    1020:	d4 01 20 10 	l.sw 16(r1),r4
    1024:	b4 60 00 10 	l.mfspr r3,r0,0x10
    1028:	00 00 31 46 	l.j d540 <_or1k_exception_handler>
    102c:	b4 80 00 20 	l.mfspr r4,r0,0x20
	...
    1100:	d4 00 08 04 	l.sw 4(r0),r1
    1104:	18 20 00 01 	l.movhi r1,0x1
    1108:	a8 21 2e fc 	l.ori r1,r1,0x2efc
    110c:	84 21 00 00 	l.lwz r1,0(r1)
    1110:	9c 21 ff 00 	l.addi r1,r1,-256
    1114:	d4 01 18 0c 	l.sw 12(r1),r3
    1118:	84 60 00 04 	l.lwz r3,4(r0)
    111c:	d4 01 18 04 	l.sw 4(r1),r3
    1120:	d4 01 20 10 	l.sw 16(r1),r4
    1124:	b4 60 00 10 	l.mfspr r3,r0,0x10
    1128:	00 00 31 06 	l.j d540 <_or1k_exception_handler>
    112c:	b4 80 00 20 	l.mfspr r4,r0,0x20
	...
    1200:	d4 00 08 04 	l.sw 4(r0),r1
    1204:	18 20 00 01 	l.movhi r1,0x1
    1208:	a8 21 2e fc 	l.ori r1,r1,0x2efc
    120c:	84 21 00 00 	l.lwz r1,0(r1)
    1210:	9c 21 ff 00 	l.addi r1,r1,-256
    1214:	d4 01 18 0c 	l.sw 12(r1),r3
    1218:	84 60 00 04 	l.lwz r3,4(r0)
    121c:	d4 01 18 04 	l.sw 4(r1),r3
    1220:	d4 01 20 10 	l.sw 16(r1),r4
    1224:	b4 60 00 10 	l.mfspr r3,r0,0x10
    1228:	00 00 30 c6 	l.j d540 <_or1k_exception_handler>
    122c:	b4 80 00 20 	l.mfspr r4,r0,0x20
	...
    1300:	d4 00 08 04 	l.sw 4(r0),r1
    1304:	18 20 00 01 	l.movhi r1,0x1
    1308:	a8 21 2e fc 	l.ori r1,r1,0x2efc
    130c:	84 21 00 00 	l.lwz r1,0(r1)
    1310:	9c 21 ff 00 	l.addi r1,r1,-256
    1314:	d4 01 18 0c 	l.sw 12(r1),r3
    1318:	84 60 00 04 	l.lwz r3,4(r0)
    131c:	d4 01 18 04 	l.sw 4(r1),r3
    1320:	d4 01 20 10 	l.sw 16(r1),r4
    1324:	b4 60 00 10 	l.mfspr r3,r0,0x10
    1328:	00 00 30 86 	l.j d540 <_or1k_exception_handler>
    132c:	b4 80 00 20 	l.mfspr r4,r0,0x20
	...
    1400:	d4 00 08 04 	l.sw 4(r0),r1
    1404:	18 20 00 01 	l.movhi r1,0x1
    1408:	a8 21 2e fc 	l.ori r1,r1,0x2efc
    140c:	84 21 00 00 	l.lwz r1,0(r1)
    1410:	9c 21 ff 00 	l.addi r1,r1,-256
    1414:	d4 01 18 0c 	l.sw 12(r1),r3
    1418:	84 60 00 04 	l.lwz r3,4(r0)
    141c:	d4 01 18 04 	l.sw 4(r1),r3
    1420:	d4 01 20 10 	l.sw 16(r1),r4
    1424:	b4 60 00 10 	l.mfspr r3,r0,0x10
    1428:	00 00 30 46 	l.j d540 <_or1k_exception_handler>
    142c:	b4 80 00 20 	l.mfspr r4,r0,0x20
	...
    1500:	d4 00 08 04 	l.sw 4(r0),r1
    1504:	18 20 00 01 	l.movhi r1,0x1
    1508:	a8 21 2e fc 	l.ori r1,r1,0x2efc
    150c:	84 21 00 00 	l.lwz r1,0(r1)
    1510:	9c 21 ff 00 	l.addi r1,r1,-256
    1514:	d4 01 18 0c 	l.sw 12(r1),r3
    1518:	84 60 00 04 	l.lwz r3,4(r0)
    151c:	d4 01 18 04 	l.sw 4(r1),r3
    1520:	d4 01 20 10 	l.sw 16(r1),r4
    1524:	b4 60 00 10 	l.mfspr r3,r0,0x10
    1528:	00 00 30 06 	l.j d540 <_or1k_exception_handler>
    152c:	b4 80 00 20 	l.mfspr r4,r0,0x20
	...
    1600:	d4 00 08 04 	l.sw 4(r0),r1
    1604:	18 20 00 01 	l.movhi r1,0x1
    1608:	a8 21 2e fc 	l.ori r1,r1,0x2efc
    160c:	84 21 00 00 	l.lwz r1,0(r1)
    1610:	9c 21 ff 00 	l.addi r1,r1,-256
    1614:	d4 01 18 0c 	l.sw 12(r1),r3
    1618:	84 60 00 04 	l.lwz r3,4(r0)
    161c:	d4 01 18 04 	l.sw 4(r1),r3
    1620:	d4 01 20 10 	l.sw 16(r1),r4
    1624:	b4 60 00 10 	l.mfspr r3,r0,0x10
    1628:	00 00 2f c6 	l.j d540 <_or1k_exception_handler>
    162c:	b4 80 00 20 	l.mfspr r4,r0,0x20
	...
    1700:	d4 00 08 04 	l.sw 4(r0),r1
    1704:	18 20 00 01 	l.movhi r1,0x1
    1708:	a8 21 2e fc 	l.ori r1,r1,0x2efc
    170c:	84 21 00 00 	l.lwz r1,0(r1)
    1710:	9c 21 ff 00 	l.addi r1,r1,-256
    1714:	d4 01 18 0c 	l.sw 12(r1),r3
    1718:	84 60 00 04 	l.lwz r3,4(r0)
    171c:	d4 01 18 04 	l.sw 4(r1),r3
    1720:	d4 01 20 10 	l.sw 16(r1),r4
    1724:	b4 60 00 10 	l.mfspr r3,r0,0x10
    1728:	00 00 2f 86 	l.j d540 <_or1k_exception_handler>
    172c:	b4 80 00 20 	l.mfspr r4,r0,0x20
	...
    1800:	d4 00 08 04 	l.sw 4(r0),r1
    1804:	18 20 00 01 	l.movhi r1,0x1
    1808:	a8 21 2e fc 	l.ori r1,r1,0x2efc
    180c:	84 21 00 00 	l.lwz r1,0(r1)
    1810:	9c 21 ff 00 	l.addi r1,r1,-256
    1814:	d4 01 18 0c 	l.sw 12(r1),r3
    1818:	84 60 00 04 	l.lwz r3,4(r0)
    181c:	d4 01 18 04 	l.sw 4(r1),r3
    1820:	d4 01 20 10 	l.sw 16(r1),r4
    1824:	b4 60 00 10 	l.mfspr r3,r0,0x10
    1828:	00 00 2f 46 	l.j d540 <_or1k_exception_handler>
    182c:	b4 80 00 20 	l.mfspr r4,r0,0x20
	...
    1900:	d4 00 08 04 	l.sw 4(r0),r1
    1904:	18 20 00 01 	l.movhi r1,0x1
    1908:	a8 21 2e fc 	l.ori r1,r1,0x2efc
    190c:	84 21 00 00 	l.lwz r1,0(r1)
    1910:	9c 21 ff 00 	l.addi r1,r1,-256
    1914:	d4 01 18 0c 	l.sw 12(r1),r3
    1918:	84 60 00 04 	l.lwz r3,4(r0)
    191c:	d4 01 18 04 	l.sw 4(r1),r3
    1920:	d4 01 20 10 	l.sw 16(r1),r4
    1924:	b4 60 00 10 	l.mfspr r3,r0,0x10
    1928:	00 00 2f 06 	l.j d540 <_or1k_exception_handler>
    192c:	b4 80 00 20 	l.mfspr r4,r0,0x20
	...
    1a00:	d4 00 08 04 	l.sw 4(r0),r1
    1a04:	18 20 00 01 	l.movhi r1,0x1
    1a08:	a8 21 2e fc 	l.ori r1,r1,0x2efc
    1a0c:	84 21 00 00 	l.lwz r1,0(r1)
    1a10:	9c 21 ff 00 	l.addi r1,r1,-256
    1a14:	d4 01 18 0c 	l.sw 12(r1),r3
    1a18:	84 60 00 04 	l.lwz r3,4(r0)
    1a1c:	d4 01 18 04 	l.sw 4(r1),r3
    1a20:	d4 01 20 10 	l.sw 16(r1),r4
    1a24:	b4 60 00 10 	l.mfspr r3,r0,0x10
    1a28:	00 00 2e c6 	l.j d540 <_or1k_exception_handler>
    1a2c:	b4 80 00 20 	l.mfspr r4,r0,0x20
	...
    1b00:	d4 00 08 04 	l.sw 4(r0),r1
    1b04:	18 20 00 01 	l.movhi r1,0x1
    1b08:	a8 21 2e fc 	l.ori r1,r1,0x2efc
    1b0c:	84 21 00 00 	l.lwz r1,0(r1)
    1b10:	9c 21 ff 00 	l.addi r1,r1,-256
    1b14:	d4 01 18 0c 	l.sw 12(r1),r3
    1b18:	84 60 00 04 	l.lwz r3,4(r0)
    1b1c:	d4 01 18 04 	l.sw 4(r1),r3
    1b20:	d4 01 20 10 	l.sw 16(r1),r4
    1b24:	b4 60 00 10 	l.mfspr r3,r0,0x10
    1b28:	00 00 2e 86 	l.j d540 <_or1k_exception_handler>
    1b2c:	b4 80 00 20 	l.mfspr r4,r0,0x20
	...
    1c00:	d4 00 08 04 	l.sw 4(r0),r1
    1c04:	18 20 00 01 	l.movhi r1,0x1
    1c08:	a8 21 2e fc 	l.ori r1,r1,0x2efc
    1c0c:	84 21 00 00 	l.lwz r1,0(r1)
    1c10:	9c 21 ff 00 	l.addi r1,r1,-256
    1c14:	d4 01 18 0c 	l.sw 12(r1),r3
    1c18:	84 60 00 04 	l.lwz r3,4(r0)
    1c1c:	d4 01 18 04 	l.sw 4(r1),r3
    1c20:	d4 01 20 10 	l.sw 16(r1),r4
    1c24:	b4 60 00 10 	l.mfspr r3,r0,0x10
    1c28:	00 00 2e 46 	l.j d540 <_or1k_exception_handler>
    1c2c:	b4 80 00 20 	l.mfspr r4,r0,0x20
	...
    1d00:	d4 00 08 04 	l.sw 4(r0),r1
    1d04:	18 20 00 01 	l.movhi r1,0x1
    1d08:	a8 21 2e fc 	l.ori r1,r1,0x2efc
    1d0c:	84 21 00 00 	l.lwz r1,0(r1)
    1d10:	9c 21 ff 00 	l.addi r1,r1,-256
    1d14:	d4 01 18 0c 	l.sw 12(r1),r3
    1d18:	84 60 00 04 	l.lwz r3,4(r0)
    1d1c:	d4 01 18 04 	l.sw 4(r1),r3
    1d20:	d4 01 20 10 	l.sw 16(r1),r4
    1d24:	b4 60 00 10 	l.mfspr r3,r0,0x10
    1d28:	00 00 2e 06 	l.j d540 <_or1k_exception_handler>
    1d2c:	b4 80 00 20 	l.mfspr r4,r0,0x20
	...
    1e00:	d4 00 08 04 	l.sw 4(r0),r1
    1e04:	18 20 00 01 	l.movhi r1,0x1
    1e08:	a8 21 2e fc 	l.ori r1,r1,0x2efc
    1e0c:	84 21 00 00 	l.lwz r1,0(r1)
    1e10:	9c 21 ff 00 	l.addi r1,r1,-256
    1e14:	d4 01 18 0c 	l.sw 12(r1),r3
    1e18:	84 60 00 04 	l.lwz r3,4(r0)
    1e1c:	d4 01 18 04 	l.sw 4(r1),r3
    1e20:	d4 01 20 10 	l.sw 16(r1),r4
    1e24:	b4 60 00 10 	l.mfspr r3,r0,0x10
    1e28:	00 00 2d c6 	l.j d540 <_or1k_exception_handler>
    1e2c:	b4 80 00 20 	l.mfspr r4,r0,0x20
	...
    1f00:	d4 00 08 04 	l.sw 4(r0),r1
    1f04:	18 20 00 01 	l.movhi r1,0x1
    1f08:	a8 21 2e fc 	l.ori r1,r1,0x2efc
    1f0c:	84 21 00 00 	l.lwz r1,0(r1)
    1f10:	9c 21 ff 00 	l.addi r1,r1,-256
    1f14:	d4 01 18 0c 	l.sw 12(r1),r3
    1f18:	84 60 00 04 	l.lwz r3,4(r0)
    1f1c:	d4 01 18 04 	l.sw 4(r1),r3
    1f20:	d4 01 20 10 	l.sw 16(r1),r4
    1f24:	b4 60 00 10 	l.mfspr r3,r0,0x10
    1f28:	00 00 2d 86 	l.j d540 <_or1k_exception_handler>
    1f2c:	b4 80 00 20 	l.mfspr r4,r0,0x20
	...
    1ffc:	15 00 00 00 	l.nop 0x0

Disassemblamento della sezione .init:

00002000 <_init-0x4>:
    2000:	15 00 00 00 	l.nop 0x0

00002004 <_init>:
    2004:	9c 21 ff fc 	l.addi r1,r1,-4
    2008:	d4 01 48 00 	l.sw 0(r1),r9
    200c:	04 00 00 bc 	l.jal 22fc <frame_dummy>
    2010:	15 00 00 00 	l.nop 0x0
    2014:	04 00 3c f5 	l.jal 113e8 <__do_global_ctors_aux>
    2018:	15 00 00 00 	l.nop 0x0
    201c:	85 21 00 00 	l.lwz r9,0(r1)
    2020:	44 00 48 00 	l.jr r9
    2024:	9c 21 00 04 	l.addi r1,r1,4

Disassemblamento della sezione .text:

00002028 <_or1k_start-0x8>:
    2028:	44 00 48 00 	l.jr r9
    202c:	15 00 00 00 	l.nop 0x0

00002030 <_or1k_start>:
    2030:	04 00 2c dc 	l.jal d3a0 <_or1k_cache_init>
    2034:	15 00 00 00 	l.nop 0x0
    2038:	04 00 2f ca 	l.jal df60 <_or1k_board_init_early>
    203c:	15 00 00 00 	l.nop 0x0
    2040:	18 60 00 01 	l.movhi r3,0x1
    2044:	a8 63 2d 38 	l.ori r3,r3,0x2d38
    2048:	18 80 00 01 	l.movhi r4,0x1
    204c:	a8 84 2f 84 	l.ori r4,r4,0x2f84
    2050:	d4 03 00 00 	l.sw 0(r3),r0
    2054:	e4 83 20 00 	l.sfltu r3,r4
    2058:	13 ff ff fe 	l.bf 2050 <_or1k_start+0x20>
    205c:	9c 63 00 04 	l.addi r3,r3,4
    2060:	18 20 00 00 	l.movhi r1,0x0
    2064:	a8 21 df 3c 	l.ori r1,r1,0xdf3c
    2068:	84 21 00 00 	l.lwz r1,0(r1)
    206c:	18 40 00 00 	l.movhi r2,0x0
    2070:	a8 42 df 40 	l.ori r2,r2,0xdf40
    2074:	84 42 00 00 	l.lwz r2,0(r2)
    2078:	e0 21 10 00 	l.add r1,r1,r2
    207c:	18 60 00 01 	l.movhi r3,0x1
    2080:	a8 63 2e fc 	l.ori r3,r3,0x2efc
    2084:	d4 03 08 00 	l.sw 0(r3),r1
    2088:	18 60 00 01 	l.movhi r3,0x1
    208c:	a8 63 20 4c 	l.ori r3,r3,0x204c
    2090:	84 63 00 00 	l.lwz r3,0(r3)
    2094:	e0 81 18 02 	l.sub r4,r1,r3
    2098:	18 a0 00 01 	l.movhi r5,0x1
    209c:	a8 a5 2f 04 	l.ori r5,r5,0x2f04
    20a0:	d4 05 20 00 	l.sw 0(r5),r4
    20a4:	e0 20 20 04 	l.or r1,r0,r4
    20a8:	e0 41 08 04 	l.or r2,r1,r1
    20ac:	18 60 00 01 	l.movhi r3,0x1
    20b0:	a8 63 2f 00 	l.ori r3,r3,0x2f00
    20b4:	d4 03 08 00 	l.sw 0(r3),r1
    20b8:	18 60 00 01 	l.movhi r3,0x1
    20bc:	a8 63 20 48 	l.ori r3,r3,0x2048
    20c0:	84 63 00 00 	l.lwz r3,0(r3)
    20c4:	e0 81 18 02 	l.sub r4,r1,r3
    20c8:	18 a0 00 01 	l.movhi r5,0x1
    20cc:	a8 a5 2f 08 	l.ori r5,r5,0x2f08
    20d0:	d4 05 20 00 	l.sw 0(r5),r4
    20d4:	04 00 2e 76 	l.jal daac <_or1k_init>
    20d8:	15 00 00 00 	l.nop 0x0
    20dc:	04 00 2e 0c 	l.jal d90c <_or1k_libc_impure_init>
    20e0:	15 00 00 00 	l.nop 0x0
    20e4:	07 ff ff c8 	l.jal 2004 <_init>
    20e8:	15 00 00 00 	l.nop 0x0
    20ec:	18 60 00 01 	l.movhi r3,0x1
    20f0:	04 00 01 28 	l.jal 2590 <atexit>
    20f4:	a8 63 14 58 	l.ori r3,r3,0x1458
    20f8:	18 80 00 00 	l.movhi r4,0x0
    20fc:	a8 84 df 48 	l.ori r4,r4,0xdf48
    2100:	84 84 00 00 	l.lwz r4,0(r4)
    2104:	e4 24 00 00 	l.sfne r4,r0
    2108:	0c 00 00 04 	l.bnf 2118 <_or1k_start+0xe8>
    210c:	e0 60 00 04 	l.or r3,r0,r0
    2110:	04 00 2c 37 	l.jal d1ec <_or1k_uart_init>
    2114:	15 00 00 00 	l.nop 0x0
    2118:	04 00 2f 94 	l.jal df68 <_or1k_board_init>
    211c:	15 00 00 00 	l.nop 0x0
    2120:	e0 60 00 04 	l.or r3,r0,r0
    2124:	e0 80 00 04 	l.or r4,r0,r0
    2128:	04 00 00 9c 	l.jal 2398 <main>
    212c:	e0 a0 00 04 	l.or r5,r0,r0
    2130:	04 00 01 24 	l.jal 25c0 <exit>
    2134:	9c 6b 00 00 	l.addi r3,r11,0
    2138:	00 00 00 00 	l.j 2138 <_or1k_start+0x108>
    213c:	15 00 00 00 	l.nop 0x0

00002140 <deregister_tm_clones>:
    2140:	d7 e1 17 f8 	l.sw -8(r1),r2
    2144:	18 60 00 01 	l.movhi r3,0x1
    2148:	18 40 00 01 	l.movhi r2,0x1
    214c:	a8 63 2d 3b 	l.ori r3,r3,0x2d3b
    2150:	a8 42 2d 38 	l.ori r2,r2,0x2d38
    2154:	d7 e1 4f fc 	l.sw -4(r1),r9
    2158:	e0 63 10 02 	l.sub r3,r3,r2
    215c:	d7 e1 0f f4 	l.sw -12(r1),r1
    2160:	bc a3 00 06 	l.sfleui r3,6
    2164:	10 00 00 09 	l.bf 2188 <deregister_tm_clones+0x48>
    2168:	9c 21 ff f4 	l.addi r1,r1,-12
    216c:	18 80 00 00 	l.movhi r4,0x0
    2170:	a8 84 00 00 	l.ori r4,r4,0x0
    2174:	bc 04 00 00 	l.sfeqi r4,0
    2178:	10 00 00 04 	l.bf 2188 <deregister_tm_clones+0x48>
    217c:	15 00 00 00 	l.nop 0x0
    2180:	48 00 20 00 	l.jalr r4
    2184:	a8 62 00 00 	l.ori r3,r2,0x0
    2188:	9c 21 00 0c 	l.addi r1,r1,12
    218c:	85 21 ff fc 	l.lwz r9,-4(r1)
    2190:	84 21 ff f4 	l.lwz r1,-12(r1)
    2194:	44 00 48 00 	l.jr r9
    2198:	84 41 ff f8 	l.lwz r2,-8(r1)

0000219c <register_tm_clones>:
    219c:	d7 e1 17 f8 	l.sw -8(r1),r2
    21a0:	18 60 00 01 	l.movhi r3,0x1
    21a4:	18 40 00 01 	l.movhi r2,0x1
    21a8:	a8 63 2d 38 	l.ori r3,r3,0x2d38
    21ac:	a8 42 2d 38 	l.ori r2,r2,0x2d38
    21b0:	d7 e1 4f fc 	l.sw -4(r1),r9
    21b4:	e0 63 10 02 	l.sub r3,r3,r2
    21b8:	d7 e1 0f f4 	l.sw -12(r1),r1
    21bc:	b8 63 00 82 	l.srai r3,r3,0x2
    21c0:	b8 83 00 5f 	l.srli r4,r3,0x1f
    21c4:	e0 84 18 00 	l.add r4,r4,r3
    21c8:	b8 84 00 81 	l.srai r4,r4,0x1
    21cc:	bc 04 00 00 	l.sfeqi r4,0
    21d0:	10 00 00 09 	l.bf 21f4 <register_tm_clones+0x58>
    21d4:	9c 21 ff f4 	l.addi r1,r1,-12
    21d8:	18 a0 00 00 	l.movhi r5,0x0
    21dc:	a8 a5 00 00 	l.ori r5,r5,0x0
    21e0:	bc 05 00 00 	l.sfeqi r5,0
    21e4:	10 00 00 04 	l.bf 21f4 <register_tm_clones+0x58>
    21e8:	15 00 00 00 	l.nop 0x0
    21ec:	48 00 28 00 	l.jalr r5
    21f0:	a8 62 00 00 	l.ori r3,r2,0x0
    21f4:	9c 21 00 0c 	l.addi r1,r1,12
    21f8:	85 21 ff fc 	l.lwz r9,-4(r1)
    21fc:	84 21 ff f4 	l.lwz r1,-12(r1)
    2200:	44 00 48 00 	l.jr r9
    2204:	84 41 ff f8 	l.lwz r2,-8(r1)

00002208 <__do_global_dtors_aux>:
    2208:	d7 e1 97 f8 	l.sw -8(r1),r18
    220c:	1a 40 00 01 	l.movhi r18,0x1
    2210:	d7 e1 17 f0 	l.sw -16(r1),r2
    2214:	aa 52 2d 38 	l.ori r18,r18,0x2d38
    2218:	d7 e1 4f fc 	l.sw -4(r1),r9
    221c:	8c 52 00 00 	l.lbz r2,0(r18)
    2220:	d7 e1 0f ec 	l.sw -20(r1),r1
    2224:	d7 e1 77 f4 	l.sw -12(r1),r14
    2228:	bc 22 00 00 	l.sfnei r2,0
    222c:	10 00 00 26 	l.bf 22c4 <__do_global_dtors_aux+0xbc>
    2230:	9c 21 ff ec 	l.addi r1,r1,-20
    2234:	19 c0 00 01 	l.movhi r14,0x1
    2238:	18 80 00 01 	l.movhi r4,0x1
    223c:	a9 ce 20 40 	l.ori r14,r14,0x2040
    2240:	a8 84 20 3c 	l.ori r4,r4,0x203c
    2244:	18 40 00 01 	l.movhi r2,0x1
    2248:	e1 ce 20 02 	l.sub r14,r14,r4
    224c:	a8 42 2d 3c 	l.ori r2,r2,0x2d3c
    2250:	b9 ce 00 82 	l.srai r14,r14,0x2
    2254:	84 62 00 00 	l.lwz r3,0(r2)
    2258:	9d ce ff ff 	l.addi r14,r14,-1
    225c:	e4 83 70 00 	l.sfltu r3,r14
    2260:	0c 00 00 0e 	l.bnf 2298 <__do_global_dtors_aux+0x90>
    2264:	9c 63 00 01 	l.addi r3,r3,1
    2268:	18 a0 00 01 	l.movhi r5,0x1
    226c:	b8 83 00 02 	l.slli r4,r3,0x2
    2270:	a8 a5 20 3c 	l.ori r5,r5,0x203c
    2274:	d4 02 18 00 	l.sw 0(r2),r3
    2278:	e0 64 28 00 	l.add r3,r4,r5
    227c:	84 63 00 00 	l.lwz r3,0(r3)
    2280:	48 00 18 00 	l.jalr r3
    2284:	15 00 00 00 	l.nop 0x0
    2288:	84 62 00 00 	l.lwz r3,0(r2)
    228c:	e4 83 70 00 	l.sfltu r3,r14
    2290:	13 ff ff f6 	l.bf 2268 <__do_global_dtors_aux+0x60>
    2294:	9c 63 00 01 	l.addi r3,r3,1
    2298:	07 ff ff aa 	l.jal 2140 <deregister_tm_clones>
    229c:	18 40 00 00 	l.movhi r2,0x0
    22a0:	a8 42 00 00 	l.ori r2,r2,0x0
    22a4:	bc 22 00 00 	l.sfnei r2,0
    22a8:	0c 00 00 06 	l.bnf 22c0 <__do_global_dtors_aux+0xb8>
    22ac:	9c 40 00 01 	l.addi r2,r0,1
    22b0:	18 60 00 01 	l.movhi r3,0x1
    22b4:	07 ff f7 53 	l.jal 0 <_or1k_reset-0x100>
    22b8:	a8 63 20 00 	l.ori r3,r3,0x2000
    22bc:	9c 40 00 01 	l.addi r2,r0,1
    22c0:	d8 12 10 00 	l.sb 0(r18),r2
    22c4:	9c 21 00 14 	l.addi r1,r1,20
    22c8:	85 21 ff fc 	l.lwz r9,-4(r1)
    22cc:	84 21 ff ec 	l.lwz r1,-20(r1)
    22d0:	84 41 ff f0 	l.lwz r2,-16(r1)
    22d4:	85 c1 ff f4 	l.lwz r14,-12(r1)
    22d8:	44 00 48 00 	l.jr r9
    22dc:	86 41 ff f8 	l.lwz r18,-8(r1)

000022e0 <call___do_global_dtors_aux>:
    22e0:	d7 e1 4f fc 	l.sw -4(r1),r9
    22e4:	d7 e1 0f f8 	l.sw -8(r1),r1
    22e8:	9c 21 ff f8 	l.addi r1,r1,-8
    22ec:	9c 21 00 08 	l.addi r1,r1,8
    22f0:	85 21 ff fc 	l.lwz r9,-4(r1)
    22f4:	44 00 48 00 	l.jr r9
    22f8:	84 21 ff f8 	l.lwz r1,-8(r1)

000022fc <frame_dummy>:
    22fc:	18 60 00 00 	l.movhi r3,0x0
    2300:	d7 e1 4f fc 	l.sw -4(r1),r9
    2304:	a8 63 00 00 	l.ori r3,r3,0x0
    2308:	d7 e1 0f f8 	l.sw -8(r1),r1
    230c:	bc 03 00 00 	l.sfeqi r3,0
    2310:	10 00 00 07 	l.bf 232c <frame_dummy+0x30>
    2314:	9c 21 ff f8 	l.addi r1,r1,-8
    2318:	18 60 00 01 	l.movhi r3,0x1
    231c:	18 80 00 01 	l.movhi r4,0x1
    2320:	a8 63 20 00 	l.ori r3,r3,0x2000
    2324:	07 ff f7 37 	l.jal 0 <_or1k_reset-0x100>
    2328:	a8 84 2d 40 	l.ori r4,r4,0x2d40
    232c:	18 60 00 01 	l.movhi r3,0x1
    2330:	a8 63 20 44 	l.ori r3,r3,0x2044
    2334:	84 83 00 00 	l.lwz r4,0(r3)
    2338:	bc 04 00 00 	l.sfeqi r4,0
    233c:	0c 00 00 08 	l.bnf 235c <frame_dummy+0x60>
    2340:	18 80 00 00 	l.movhi r4,0x0
    2344:	07 ff ff 96 	l.jal 219c <register_tm_clones>
    2348:	15 00 00 00 	l.nop 0x0
    234c:	9c 21 00 08 	l.addi r1,r1,8
    2350:	85 21 ff fc 	l.lwz r9,-4(r1)
    2354:	44 00 48 00 	l.jr r9
    2358:	84 21 ff f8 	l.lwz r1,-8(r1)
    235c:	a8 84 00 00 	l.ori r4,r4,0x0
    2360:	bc 04 00 00 	l.sfeqi r4,0
    2364:	13 ff ff f8 	l.bf 2344 <frame_dummy+0x48>
    2368:	15 00 00 00 	l.nop 0x0
    236c:	48 00 20 00 	l.jalr r4
    2370:	15 00 00 00 	l.nop 0x0
    2374:	03 ff ff f4 	l.j 2344 <frame_dummy+0x48>
    2378:	15 00 00 00 	l.nop 0x0

0000237c <call_frame_dummy>:
    237c:	d7 e1 4f fc 	l.sw -4(r1),r9
    2380:	d7 e1 0f f8 	l.sw -8(r1),r1
    2384:	9c 21 ff f8 	l.addi r1,r1,-8
    2388:	9c 21 00 08 	l.addi r1,r1,8
    238c:	85 21 ff fc 	l.lwz r9,-4(r1)
    2390:	44 00 48 00 	l.jr r9
    2394:	84 21 ff f8 	l.lwz r1,-8(r1)

00002398 <main>:
    2398:	d7 e1 17 f8 	l.sw -8(r1),r2
    239c:	9c 41 00 00 	l.addi r2,r1,0
    23a0:	d7 e1 4f fc 	l.sw -4(r1),r9
    23a4:	9c 21 ff ec 	l.addi r1,r1,-20
    23a8:	d7 e2 1f f4 	l.sw -12(r2),r3
    23ac:	d7 e2 27 f0 	l.sw -16(r2),r4
    23b0:	18 60 00 01 	l.movhi r3,0x1
    23b4:	a8 63 2d b4 	l.ori r3,r3,0x2db4
    23b8:	9c 80 00 01 	l.addi r4,r0,1
    23bc:	d4 03 20 00 	l.sw 0(r3),r4
    23c0:	18 60 00 01 	l.movhi r3,0x1
    23c4:	a8 63 2d cc 	l.ori r3,r3,0x2dcc
    23c8:	9c 80 00 02 	l.addi r4,r0,2
    23cc:	d4 03 20 00 	l.sw 0(r3),r4
    23d0:	18 60 00 01 	l.movhi r3,0x1
    23d4:	a8 63 2d cc 	l.ori r3,r3,0x2dcc
    23d8:	84 83 00 00 	l.lwz r4,0(r3)
    23dc:	18 60 00 01 	l.movhi r3,0x1
    23e0:	a8 63 2d b0 	l.ori r3,r3,0x2db0
    23e4:	84 63 00 00 	l.lwz r3,0(r3)
    23e8:	e0 84 18 00 	l.add r4,r4,r3
    23ec:	18 60 00 01 	l.movhi r3,0x1
    23f0:	a8 63 2d b0 	l.ori r3,r3,0x2db0
    23f4:	d4 03 20 00 	l.sw 0(r3),r4
    23f8:	18 60 00 01 	l.movhi r3,0x1
    23fc:	a8 63 2d b0 	l.ori r3,r3,0x2db0
    2400:	84 63 00 00 	l.lwz r3,0(r3)
    2404:	9c 83 00 01 	l.addi r4,r3,1
    2408:	18 60 00 01 	l.movhi r3,0x1
    240c:	a8 63 2d b0 	l.ori r3,r3,0x2db0
    2410:	d4 03 20 00 	l.sw 0(r3),r4
    2414:	18 60 00 01 	l.movhi r3,0x1
    2418:	a8 63 2d c8 	l.ori r3,r3,0x2dc8
    241c:	9c 80 00 05 	l.addi r4,r0,5
    2420:	d4 03 20 00 	l.sw 0(r3),r4
    2424:	18 60 00 01 	l.movhi r3,0x1
    2428:	a8 63 2d c8 	l.ori r3,r3,0x2dc8
    242c:	84 83 00 00 	l.lwz r4,0(r3)
    2430:	18 60 00 01 	l.movhi r3,0x1
    2434:	a8 63 2d b0 	l.ori r3,r3,0x2db0
    2438:	84 63 00 00 	l.lwz r3,0(r3)
    243c:	e0 84 18 00 	l.add r4,r4,r3
    2440:	18 60 00 01 	l.movhi r3,0x1
    2444:	a8 63 2d c0 	l.ori r3,r3,0x2dc0
    2448:	d4 03 20 00 	l.sw 0(r3),r4
    244c:	18 60 00 01 	l.movhi r3,0x1
    2450:	a8 63 2d ac 	l.ori r3,r3,0x2dac
    2454:	84 63 00 00 	l.lwz r3,0(r3)
    2458:	9c 83 00 04 	l.addi r4,r3,4
    245c:	18 60 00 01 	l.movhi r3,0x1
    2460:	a8 63 2d ac 	l.ori r3,r3,0x2dac
    2464:	d4 03 20 00 	l.sw 0(r3),r4
    2468:	18 60 00 01 	l.movhi r3,0x1
    246c:	a8 63 2d a0 	l.ori r3,r3,0x2da0
    2470:	9c 80 00 0d 	l.addi r4,r0,13
    2474:	d4 03 20 00 	l.sw 0(r3),r4
    2478:	18 60 00 01 	l.movhi r3,0x1
    247c:	a8 63 2d b4 	l.ori r3,r3,0x2db4
    2480:	84 83 00 00 	l.lwz r4,0(r3)
    2484:	18 60 00 01 	l.movhi r3,0x1
    2488:	a8 63 2d cc 	l.ori r3,r3,0x2dcc
    248c:	84 63 00 00 	l.lwz r3,0(r3)
    2490:	e0 84 18 00 	l.add r4,r4,r3
    2494:	18 60 00 01 	l.movhi r3,0x1
    2498:	a8 63 2d b0 	l.ori r3,r3,0x2db0
    249c:	84 63 00 00 	l.lwz r3,0(r3)
    24a0:	e0 84 18 00 	l.add r4,r4,r3
    24a4:	18 60 00 01 	l.movhi r3,0x1
    24a8:	a8 63 2d b8 	l.ori r3,r3,0x2db8
    24ac:	d4 03 20 00 	l.sw 0(r3),r4
    24b0:	18 60 00 01 	l.movhi r3,0x1
    24b4:	a8 63 2d ac 	l.ori r3,r3,0x2dac
    24b8:	84 83 00 00 	l.lwz r4,0(r3)
    24bc:	18 60 00 01 	l.movhi r3,0x1
    24c0:	a8 63 2d b8 	l.ori r3,r3,0x2db8
    24c4:	84 63 00 00 	l.lwz r3,0(r3)
    24c8:	e0 84 18 00 	l.add r4,r4,r3
    24cc:	18 60 00 01 	l.movhi r3,0x1
    24d0:	a8 63 2d a4 	l.ori r3,r3,0x2da4
    24d4:	d4 03 20 00 	l.sw 0(r3),r4
    24d8:	18 60 00 01 	l.movhi r3,0x1
    24dc:	a8 63 2d a0 	l.ori r3,r3,0x2da0
    24e0:	84 63 00 00 	l.lwz r3,0(r3)
    24e4:	9c 83 00 07 	l.addi r4,r3,7
    24e8:	18 60 00 01 	l.movhi r3,0x1
    24ec:	a8 63 2d d4 	l.ori r3,r3,0x2dd4
    24f0:	d4 03 20 00 	l.sw 0(r3),r4
    24f4:	18 60 00 01 	l.movhi r3,0x1
    24f8:	a8 63 2d d0 	l.ori r3,r3,0x2dd0
    24fc:	9c 80 00 ff 	l.addi r4,r0,255
    2500:	d4 03 20 00 	l.sw 0(r3),r4
    2504:	18 60 00 01 	l.movhi r3,0x1
    2508:	a8 63 2d c4 	l.ori r3,r3,0x2dc4
    250c:	9c 80 02 00 	l.addi r4,r0,512
    2510:	d4 03 20 00 	l.sw 0(r3),r4
    2514:	18 60 00 01 	l.movhi r3,0x1
    2518:	a8 63 2d c4 	l.ori r3,r3,0x2dc4
    251c:	84 83 00 00 	l.lwz r4,0(r3)
    2520:	18 60 00 01 	l.movhi r3,0x1
    2524:	a8 63 2d d0 	l.ori r3,r3,0x2dd0
    2528:	84 63 00 00 	l.lwz r3,0(r3)
    252c:	e0 84 18 00 	l.add r4,r4,r3
    2530:	18 60 00 01 	l.movhi r3,0x1
    2534:	a8 63 2d bc 	l.ori r3,r3,0x2dbc
    2538:	d4 03 20 00 	l.sw 0(r3),r4
    253c:	18 60 00 01 	l.movhi r3,0x1
    2540:	a8 63 2d bc 	l.ori r3,r3,0x2dbc
    2544:	84 83 00 00 	l.lwz r4,0(r3)
    2548:	18 60 00 01 	l.movhi r3,0x1
    254c:	a8 63 2d a8 	l.ori r3,r3,0x2da8
    2550:	d4 03 20 00 	l.sw 0(r3),r4
    2554:	18 60 00 01 	l.movhi r3,0x1
    2558:	a8 63 2d c8 	l.ori r3,r3,0x2dc8
    255c:	84 63 00 00 	l.lwz r3,0(r3)
    2560:	d4 01 18 00 	l.sw 0(r1),r3
    2564:	18 60 00 01 	l.movhi r3,0x1
    2568:	a8 63 14 74 	l.ori r3,r3,0x1474
    256c:	04 00 00 32 	l.jal 2634 <printf>
    2570:	15 00 00 00 	l.nop 0x0
    2574:	9c 60 00 00 	l.addi r3,r0,0
    2578:	a9 63 00 00 	l.ori r11,r3,0x0
    257c:	a8 22 00 00 	l.ori r1,r2,0x0
    2580:	84 41 ff f8 	l.lwz r2,-8(r1)
    2584:	85 21 ff fc 	l.lwz r9,-4(r1)
    2588:	44 00 48 00 	l.jr r9
    258c:	15 00 00 00 	l.nop 0x0

00002590 <atexit>:
    2590:	a8 83 00 00 	l.ori r4,r3,0x0
    2594:	9c 60 00 00 	l.addi r3,r0,0
    2598:	d7 e1 4f fc 	l.sw -4(r1),r9
    259c:	d7 e1 0f f8 	l.sw -8(r1),r1
    25a0:	a8 a3 00 00 	l.ori r5,r3,0x0
    25a4:	9c 21 ff f8 	l.addi r1,r1,-8
    25a8:	04 00 09 23 	l.jal 4a34 <__register_exitproc>
    25ac:	a8 c3 00 00 	l.ori r6,r3,0x0
    25b0:	9c 21 00 08 	l.addi r1,r1,8
    25b4:	85 21 ff fc 	l.lwz r9,-4(r1)
    25b8:	44 00 48 00 	l.jr r9
    25bc:	84 21 ff f8 	l.lwz r1,-8(r1)

000025c0 <exit>:
    25c0:	d7 e1 17 f8 	l.sw -8(r1),r2
    25c4:	d7 e1 4f fc 	l.sw -4(r1),r9
    25c8:	d7 e1 0f f4 	l.sw -12(r1),r1
    25cc:	9c 80 00 00 	l.addi r4,r0,0
    25d0:	9c 21 ff f4 	l.addi r1,r1,-12
    25d4:	04 00 09 68 	l.jal 4b74 <__call_exitprocs>
    25d8:	a8 43 00 00 	l.ori r2,r3,0x0
    25dc:	18 60 00 01 	l.movhi r3,0x1
    25e0:	a8 63 14 7c 	l.ori r3,r3,0x147c
    25e4:	84 63 00 00 	l.lwz r3,0(r3)
    25e8:	84 83 00 3c 	l.lwz r4,60(r3)
    25ec:	bc 04 00 00 	l.sfeqi r4,0
    25f0:	10 00 00 04 	l.bf 2600 <exit+0x40>
    25f4:	15 00 00 00 	l.nop 0x0
    25f8:	48 00 20 00 	l.jalr r4
    25fc:	15 00 00 00 	l.nop 0x0
    2600:	04 00 2a 5d 	l.jal cf74 <_exit>
    2604:	a8 62 00 00 	l.ori r3,r2,0x0

00002608 <_printf_r>:
    2608:	d7 e1 4f fc 	l.sw -4(r1),r9
    260c:	d7 e1 0f f8 	l.sw -8(r1),r1
    2610:	9c 21 ff f8 	l.addi r1,r1,-8
    2614:	a8 a4 00 00 	l.ori r5,r4,0x0
    2618:	9c c1 00 08 	l.addi r6,r1,8
    261c:	04 00 00 16 	l.jal 2674 <_vfprintf_r>
    2620:	84 83 00 08 	l.lwz r4,8(r3)
    2624:	9c 21 00 08 	l.addi r1,r1,8
    2628:	85 21 ff fc 	l.lwz r9,-4(r1)
    262c:	44 00 48 00 	l.jr r9
    2630:	84 21 ff f8 	l.lwz r1,-8(r1)

00002634 <printf>:
    2634:	d7 e1 4f fc 	l.sw -4(r1),r9
    2638:	d7 e1 17 f8 	l.sw -8(r1),r2
    263c:	d7 e1 0f f4 	l.sw -12(r1),r1
    2640:	9c 21 ff f4 	l.addi r1,r1,-12
    2644:	04 00 15 21 	l.jal 7ac8 <__getreent>
    2648:	a8 43 00 00 	l.ori r2,r3,0x0
    264c:	a8 a2 00 00 	l.ori r5,r2,0x0
    2650:	9c c1 00 0c 	l.addi r6,r1,12
    2654:	a8 6b 00 00 	l.ori r3,r11,0x0
    2658:	04 00 00 07 	l.jal 2674 <_vfprintf_r>
    265c:	84 8b 00 08 	l.lwz r4,8(r11)
    2660:	9c 21 00 0c 	l.addi r1,r1,12
    2664:	85 21 ff fc 	l.lwz r9,-4(r1)
    2668:	84 21 ff f4 	l.lwz r1,-12(r1)
    266c:	44 00 48 00 	l.jr r9
    2670:	84 41 ff f8 	l.lwz r2,-8(r1)

00002674 <_vfprintf_r>:
    2674:	d7 e1 4f fc 	l.sw -4(r1),r9
    2678:	d7 e1 a7 e4 	l.sw -28(r1),r20
    267c:	d7 e1 d7 f0 	l.sw -16(r1),r26
    2680:	d7 e1 0f d4 	l.sw -44(r1),r1
    2684:	d7 e1 17 d8 	l.sw -40(r1),r2
    2688:	d7 e1 77 dc 	l.sw -36(r1),r14
    268c:	d7 e1 97 e0 	l.sw -32(r1),r18
    2690:	d7 e1 b7 e8 	l.sw -24(r1),r22
    2694:	d7 e1 c7 ec 	l.sw -20(r1),r24
    2698:	d7 e1 e7 f4 	l.sw -12(r1),r28
    269c:	d7 e1 f7 f8 	l.sw -8(r1),r30
    26a0:	9c 21 fe e4 	l.addi r1,r1,-284
    26a4:	aa 83 00 00 	l.ori r20,r3,0x0
    26a8:	ab 44 00 00 	l.ori r26,r4,0x0
    26ac:	d4 01 28 18 	l.sw 24(r1),r5
    26b0:	04 00 15 48 	l.jal 7bd0 <_localeconv_r>
    26b4:	d4 01 30 24 	l.sw 36(r1),r6
    26b8:	85 6b 00 00 	l.lwz r11,0(r11)
    26bc:	a8 6b 00 00 	l.ori r3,r11,0x0
    26c0:	04 00 1f 3c 	l.jal a3b0 <strlen>
    26c4:	d4 01 58 44 	l.sw 68(r1),r11
    26c8:	bc 14 00 00 	l.sfeqi r20,0
    26cc:	10 00 00 06 	l.bf 26e4 <_vfprintf_r+0x70>
    26d0:	d4 01 58 50 	l.sw 80(r1),r11
    26d4:	84 54 00 38 	l.lwz r2,56(r20)
    26d8:	bc 22 00 00 	l.sfnei r2,0
    26dc:	0c 00 00 bc 	l.bnf 29cc <_vfprintf_r+0x358>
    26e0:	15 00 00 00 	l.nop 0x0
    26e4:	98 7a 00 0c 	l.lhs r3,12(r26)
    26e8:	a4 43 ff ff 	l.andi r2,r3,0xffff
    26ec:	a4 82 20 00 	l.andi r4,r2,0x2000
    26f0:	bc 24 00 00 	l.sfnei r4,0
    26f4:	10 00 00 08 	l.bf 2714 <_vfprintf_r+0xa0>
    26f8:	9c a0 df ff 	l.addi r5,r0,-8193
    26fc:	84 9a 00 64 	l.lwz r4,100(r26)
    2700:	a8 43 20 00 	l.ori r2,r3,0x2000
    2704:	e0 64 28 03 	l.and r3,r4,r5
    2708:	dc 1a 10 0c 	l.sh 12(r26),r2
    270c:	d4 1a 18 64 	l.sw 100(r26),r3
    2710:	a4 42 ff ff 	l.andi r2,r2,0xffff
    2714:	a4 62 00 08 	l.andi r3,r2,0x8
    2718:	bc 03 00 00 	l.sfeqi r3,0
    271c:	10 00 00 72 	l.bf 28e4 <_vfprintf_r+0x270>
    2720:	a8 74 00 00 	l.ori r3,r20,0x0
    2724:	84 7a 00 10 	l.lwz r3,16(r26)
    2728:	bc 23 00 00 	l.sfnei r3,0
    272c:	0c 00 00 6d 	l.bnf 28e0 <_vfprintf_r+0x26c>
    2730:	a4 42 00 1a 	l.andi r2,r2,0x1a
    2734:	bc 22 00 0a 	l.sfnei r2,10
    2738:	0c 00 00 75 	l.bnf 290c <_vfprintf_r+0x298>
    273c:	9c 40 00 00 	l.addi r2,r0,0
    2740:	9e c1 00 b0 	l.addi r22,r1,176
    2744:	d4 01 10 2c 	l.sw 44(r1),r2
    2748:	9c 41 00 af 	l.addi r2,r1,175
    274c:	9c 60 00 00 	l.addi r3,r0,0
    2750:	d4 01 10 08 	l.sw 8(r1),r2
    2754:	9c 41 00 7c 	l.addi r2,r1,124
    2758:	d4 01 b0 7c 	l.sw 124(r1),r22
    275c:	d4 01 10 10 	l.sw 16(r1),r2
    2760:	9c 41 00 6c 	l.addi r2,r1,108
    2764:	d4 01 18 84 	l.sw 132(r1),r3
    2768:	d4 01 10 0c 	l.sw 12(r1),r2
    276c:	84 41 00 08 	l.lwz r2,8(r1)
    2770:	d4 01 18 80 	l.sw 128(r1),r3
    2774:	e0 56 10 02 	l.sub r2,r22,r2
    2778:	d4 01 18 48 	l.sw 72(r1),r3
    277c:	d4 01 18 4c 	l.sw 76(r1),r3
    2780:	ab 96 00 00 	l.ori r28,r22,0x0
    2784:	d4 01 18 58 	l.sw 88(r1),r3
    2788:	d4 01 18 54 	l.sw 84(r1),r3
    278c:	d4 01 18 30 	l.sw 48(r1),r3
    2790:	d4 01 10 5c 	l.sw 92(r1),r2
    2794:	84 61 00 18 	l.lwz r3,24(r1)
    2798:	90 43 00 00 	l.lbs r2,0(r3)
    279c:	ac 62 00 25 	l.xori r3,r2,37
    27a0:	a4 63 00 ff 	l.andi r3,r3,0xff
    27a4:	bc 03 00 00 	l.sfeqi r3,0
    27a8:	10 00 00 8d 	l.bf 29dc <_vfprintf_r+0x368>
    27ac:	15 00 00 00 	l.nop 0x0
    27b0:	a4 42 00 ff 	l.andi r2,r2,0xff
    27b4:	bc 02 00 00 	l.sfeqi r2,0
    27b8:	10 00 00 89 	l.bf 29dc <_vfprintf_r+0x368>
    27bc:	15 00 00 00 	l.nop 0x0
    27c0:	00 00 00 05 	l.j 27d4 <_vfprintf_r+0x160>
    27c4:	84 41 00 18 	l.lwz r2,24(r1)
    27c8:	bc 23 00 00 	l.sfnei r3,0
    27cc:	0c 00 00 0a 	l.bnf 27f4 <_vfprintf_r+0x180>
    27d0:	84 81 00 18 	l.lwz r4,24(r1)
    27d4:	9c 42 00 01 	l.addi r2,r2,1
    27d8:	90 62 00 00 	l.lbs r3,0(r2)
    27dc:	ac 83 00 25 	l.xori r4,r3,37
    27e0:	a4 84 00 ff 	l.andi r4,r4,0xff
    27e4:	bc 04 00 00 	l.sfeqi r4,0
    27e8:	0f ff ff f8 	l.bnf 27c8 <_vfprintf_r+0x154>
    27ec:	a4 63 00 ff 	l.andi r3,r3,0xff
    27f0:	84 81 00 18 	l.lwz r4,24(r1)
    27f4:	e1 c2 20 02 	l.sub r14,r2,r4
    27f8:	bc 0e 00 00 	l.sfeqi r14,0
    27fc:	10 00 00 10 	l.bf 283c <_vfprintf_r+0x1c8>
    2800:	84 81 00 84 	l.lwz r4,132(r1)
    2804:	84 61 00 80 	l.lwz r3,128(r1)
    2808:	e0 84 70 00 	l.add r4,r4,r14
    280c:	9c 63 00 01 	l.addi r3,r3,1
    2810:	84 a1 00 18 	l.lwz r5,24(r1)
    2814:	d4 1c 70 04 	l.sw 4(r28),r14
    2818:	d4 1c 28 00 	l.sw 0(r28),r5
    281c:	d4 01 20 84 	l.sw 132(r1),r4
    2820:	bd 43 00 07 	l.sfgtsi r3,7
    2824:	10 00 00 53 	l.bf 2970 <_vfprintf_r+0x2fc>
    2828:	d4 01 18 80 	l.sw 128(r1),r3
    282c:	9f 9c 00 08 	l.addi r28,r28,8
    2830:	84 e1 00 30 	l.lwz r7,48(r1)
    2834:	e0 e7 70 00 	l.add r7,r7,r14
    2838:	d4 01 38 30 	l.sw 48(r1),r7
    283c:	90 62 00 00 	l.lbs r3,0(r2)
    2840:	bc 03 00 00 	l.sfeqi r3,0
    2844:	10 00 00 54 	l.bf 2994 <_vfprintf_r+0x320>
    2848:	9c a0 00 00 	l.addi r5,r0,0
    284c:	9c 60 00 00 	l.addi r3,r0,0
    2850:	9c 80 ff ff 	l.addi r4,r0,-1
    2854:	9c 42 00 01 	l.addi r2,r2,1
    2858:	d8 01 18 61 	l.sb 97(r1),r3
    285c:	d4 01 20 14 	l.sw 20(r1),r4
    2860:	d4 01 28 28 	l.sw 40(r1),r5
    2864:	ab c5 00 00 	l.ori r30,r5,0x0
    2868:	90 c2 00 00 	l.lbs r6,0(r2)
    286c:	9c 82 00 01 	l.addi r4,r2,1
    2870:	9c 46 ff e0 	l.addi r2,r6,-32
    2874:	bc 42 00 58 	l.sfgtui r2,88
    2878:	10 00 02 13 	l.bf 30c4 <_vfprintf_r+0xa50>
    287c:	18 e0 00 01 	l.movhi r7,0x1
    2880:	b8 42 00 02 	l.slli r2,r2,0x2
    2884:	a8 e7 14 c8 	l.ori r7,r7,0x14c8
    2888:	e0 42 38 00 	l.add r2,r2,r7
    288c:	84 42 00 00 	l.lwz r2,0(r2)
    2890:	44 00 10 00 	l.jr r2
    2894:	15 00 00 00 	l.nop 0x0
    2898:	ab de 00 10 	l.ori r30,r30,0x10
    289c:	03 ff ff f3 	l.j 2868 <_vfprintf_r+0x1f4>
    28a0:	a8 44 00 00 	l.ori r2,r4,0x0
    28a4:	84 41 00 24 	l.lwz r2,36(r1)
    28a8:	84 e1 00 24 	l.lwz r7,36(r1)
    28ac:	84 42 00 00 	l.lwz r2,0(r2)
    28b0:	9c e7 00 04 	l.addi r7,r7,4
    28b4:	d4 01 10 28 	l.sw 40(r1),r2
    28b8:	d4 01 38 24 	l.sw 36(r1),r7
    28bc:	84 61 00 28 	l.lwz r3,40(r1)
    28c0:	bd 63 00 00 	l.sfgesi r3,0
    28c4:	13 ff ff e9 	l.bf 2868 <_vfprintf_r+0x1f4>
    28c8:	a8 44 00 00 	l.ori r2,r4,0x0
    28cc:	e0 60 18 02 	l.sub r3,r0,r3
    28d0:	d4 01 18 28 	l.sw 40(r1),r3
    28d4:	ab de 00 04 	l.ori r30,r30,0x4
    28d8:	03 ff ff e4 	l.j 2868 <_vfprintf_r+0x1f4>
    28dc:	a8 44 00 00 	l.ori r2,r4,0x0
    28e0:	a8 74 00 00 	l.ori r3,r20,0x0
    28e4:	04 00 07 e6 	l.jal 487c <__swsetup_r>
    28e8:	a8 9a 00 00 	l.ori r4,r26,0x0
    28ec:	bc 0b 00 00 	l.sfeqi r11,0
    28f0:	0c 00 00 12 	l.bnf 2938 <_vfprintf_r+0x2c4>
    28f4:	15 00 00 00 	l.nop 0x0
    28f8:	94 5a 00 0c 	l.lhz r2,12(r26)
    28fc:	a4 42 00 1a 	l.andi r2,r2,0x1a
    2900:	bc 22 00 0a 	l.sfnei r2,10
    2904:	13 ff ff 8f 	l.bf 2740 <_vfprintf_r+0xcc>
    2908:	9c 40 00 00 	l.addi r2,r0,0
    290c:	98 5a 00 0e 	l.lhs r2,14(r26)
    2910:	bd 82 00 00 	l.sfltsi r2,0
    2914:	13 ff ff 8b 	l.bf 2740 <_vfprintf_r+0xcc>
    2918:	9c 40 00 00 	l.addi r2,r0,0
    291c:	a8 74 00 00 	l.ori r3,r20,0x0
    2920:	a8 9a 00 00 	l.ori r4,r26,0x0
    2924:	84 a1 00 18 	l.lwz r5,24(r1)
    2928:	04 00 07 9c 	l.jal 4798 <__sbprintf>
    292c:	84 c1 00 24 	l.lwz r6,36(r1)
    2930:	00 00 00 04 	l.j 2940 <_vfprintf_r+0x2cc>
    2934:	9c 21 01 1c 	l.addi r1,r1,284
    2938:	9d 60 ff ff 	l.addi r11,r0,-1
    293c:	9c 21 01 1c 	l.addi r1,r1,284
    2940:	85 21 ff fc 	l.lwz r9,-4(r1)
    2944:	84 21 ff d4 	l.lwz r1,-44(r1)
    2948:	84 41 ff d8 	l.lwz r2,-40(r1)
    294c:	85 c1 ff dc 	l.lwz r14,-36(r1)
    2950:	86 41 ff e0 	l.lwz r18,-32(r1)
    2954:	86 81 ff e4 	l.lwz r20,-28(r1)
    2958:	86 c1 ff e8 	l.lwz r22,-24(r1)
    295c:	87 01 ff ec 	l.lwz r24,-20(r1)
    2960:	87 41 ff f0 	l.lwz r26,-16(r1)
    2964:	87 81 ff f4 	l.lwz r28,-12(r1)
    2968:	44 00 48 00 	l.jr r9
    296c:	87 c1 ff f8 	l.lwz r30,-8(r1)
    2970:	a8 74 00 00 	l.ori r3,r20,0x0
    2974:	a8 9a 00 00 	l.ori r4,r26,0x0
    2978:	04 00 1f 17 	l.jal a5d4 <__sprint_r>
    297c:	9c a1 00 7c 	l.addi r5,r1,124
    2980:	bc 2b 00 00 	l.sfnei r11,0
    2984:	10 00 00 0b 	l.bf 29b0 <_vfprintf_r+0x33c>
    2988:	ab 96 00 00 	l.ori r28,r22,0x0
    298c:	03 ff ff aa 	l.j 2834 <_vfprintf_r+0x1c0>
    2990:	84 e1 00 30 	l.lwz r7,48(r1)
    2994:	84 41 00 84 	l.lwz r2,132(r1)
    2998:	bc 22 00 00 	l.sfnei r2,0
    299c:	0c 00 00 05 	l.bnf 29b0 <_vfprintf_r+0x33c>
    29a0:	a8 74 00 00 	l.ori r3,r20,0x0
    29a4:	a8 9a 00 00 	l.ori r4,r26,0x0
    29a8:	04 00 1f 0b 	l.jal a5d4 <__sprint_r>
    29ac:	9c a1 00 7c 	l.addi r5,r1,124
    29b0:	94 5a 00 0c 	l.lhz r2,12(r26)
    29b4:	a4 42 00 40 	l.andi r2,r2,0x40
    29b8:	bc 22 00 00 	l.sfnei r2,0
    29bc:	13 ff ff df 	l.bf 2938 <_vfprintf_r+0x2c4>
    29c0:	85 61 00 30 	l.lwz r11,48(r1)
    29c4:	03 ff ff df 	l.j 2940 <_vfprintf_r+0x2cc>
    29c8:	9c 21 01 1c 	l.addi r1,r1,284
    29cc:	04 00 12 79 	l.jal 73b0 <__sinit>
    29d0:	a8 74 00 00 	l.ori r3,r20,0x0
    29d4:	03 ff ff 45 	l.j 26e8 <_vfprintf_r+0x74>
    29d8:	98 7a 00 0c 	l.lhs r3,12(r26)
    29dc:	03 ff ff 98 	l.j 283c <_vfprintf_r+0x1c8>
    29e0:	84 41 00 18 	l.lwz r2,24(r1)
    29e4:	a8 44 00 00 	l.ori r2,r4,0x0
    29e8:	03 ff ff a0 	l.j 2868 <_vfprintf_r+0x1f4>
    29ec:	9c a0 00 2b 	l.addi r5,r0,43
    29f0:	84 41 00 24 	l.lwz r2,36(r1)
    29f4:	9c 60 00 00 	l.addi r3,r0,0
    29f8:	84 42 00 00 	l.lwz r2,0(r2)
    29fc:	d4 01 20 18 	l.sw 24(r1),r4
    2a00:	d4 01 10 38 	l.sw 56(r1),r2
    2a04:	bc 22 00 00 	l.sfnei r2,0
    2a08:	84 81 00 24 	l.lwz r4,36(r1)
    2a0c:	d4 01 30 3c 	l.sw 60(r1),r6
    2a10:	d8 01 18 61 	l.sb 97(r1),r3
    2a14:	0c 00 06 3c 	l.bnf 4304 <_vfprintf_r+0x1c90>
    2a18:	9c 44 00 04 	l.addi r2,r4,4
    2a1c:	84 61 00 14 	l.lwz r3,20(r1)
    2a20:	9c 80 00 00 	l.addi r4,r0,0
    2a24:	bd 83 00 00 	l.sfltsi r3,0
    2a28:	10 00 05 fe 	l.bf 4220 <_vfprintf_r+0x1bac>
    2a2c:	84 61 00 38 	l.lwz r3,56(r1)
    2a30:	04 00 17 64 	l.jal 87c0 <memchr>
    2a34:	84 a1 00 14 	l.lwz r5,20(r1)
    2a38:	bc 2b 00 00 	l.sfnei r11,0
    2a3c:	0c 00 06 d4 	l.bnf 458c <_vfprintf_r+0x1f18>
    2a40:	84 a1 00 38 	l.lwz r5,56(r1)
    2a44:	9c e0 00 00 	l.addi r7,r0,0
    2a48:	e1 6b 28 02 	l.sub r11,r11,r5
    2a4c:	92 41 00 61 	l.lbs r18,97(r1)
    2a50:	ac 6b ff ff 	l.xori r3,r11,-1
    2a54:	d4 01 58 20 	l.sw 32(r1),r11
    2a58:	b8 63 00 9f 	l.srai r3,r3,0x1f
    2a5c:	d4 01 38 14 	l.sw 20(r1),r7
    2a60:	d4 01 10 24 	l.sw 36(r1),r2
    2a64:	e0 6b 18 03 	l.and r3,r11,r3
    2a68:	d4 01 38 40 	l.sw 64(r1),r7
    2a6c:	d4 01 18 1c 	l.sw 28(r1),r3
    2a70:	bc 12 00 00 	l.sfeqi r18,0
    2a74:	10 00 00 06 	l.bf 2a8c <_vfprintf_r+0x418>
    2a78:	a4 5e 00 02 	l.andi r2,r30,0x2
    2a7c:	84 41 00 1c 	l.lwz r2,28(r1)
    2a80:	9c 42 00 01 	l.addi r2,r2,1
    2a84:	d4 01 10 1c 	l.sw 28(r1),r2
    2a88:	a4 5e 00 02 	l.andi r2,r30,0x2
    2a8c:	bc 02 00 00 	l.sfeqi r2,0
    2a90:	10 00 00 05 	l.bf 2aa4 <_vfprintf_r+0x430>
    2a94:	d4 01 10 34 	l.sw 52(r1),r2
    2a98:	84 41 00 1c 	l.lwz r2,28(r1)
    2a9c:	9c 42 00 02 	l.addi r2,r2,2
    2aa0:	d4 01 10 1c 	l.sw 28(r1),r2
    2aa4:	a7 1e 00 84 	l.andi r24,r30,0x84
    2aa8:	bc 18 00 00 	l.sfeqi r24,0
    2aac:	0c 00 01 9f 	l.bnf 3128 <_vfprintf_r+0xab4>
    2ab0:	84 41 00 84 	l.lwz r2,132(r1)
    2ab4:	84 61 00 28 	l.lwz r3,40(r1)
    2ab8:	84 41 00 1c 	l.lwz r2,28(r1)
    2abc:	e1 c3 10 02 	l.sub r14,r3,r2
    2ac0:	bd 4e 00 00 	l.sfgtsi r14,0
    2ac4:	0c 00 01 98 	l.bnf 3124 <_vfprintf_r+0xab0>
    2ac8:	84 61 00 80 	l.lwz r3,128(r1)
    2acc:	1a 40 00 01 	l.movhi r18,0x1
    2ad0:	bd 4e 00 10 	l.sfgtsi r14,16
    2ad4:	84 81 00 84 	l.lwz r4,132(r1)
    2ad8:	aa 52 16 3c 	l.ori r18,r18,0x163c
    2adc:	9c 40 00 10 	l.addi r2,r0,16
    2ae0:	10 00 00 08 	l.bf 2b00 <_vfprintf_r+0x48c>
    2ae4:	a8 a3 00 00 	l.ori r5,r3,0x0
    2ae8:	00 00 00 1c 	l.j 2b58 <_vfprintf_r+0x4e4>
    2aec:	9c 63 00 01 	l.addi r3,r3,1
    2af0:	9d ce ff f0 	l.addi r14,r14,-16
    2af4:	bd 4e 00 10 	l.sfgtsi r14,16
    2af8:	0c 00 00 16 	l.bnf 2b50 <_vfprintf_r+0x4dc>
    2afc:	9f 9c 00 08 	l.addi r28,r28,8
    2b00:	9c a5 00 01 	l.addi r5,r5,1
    2b04:	9c 84 00 10 	l.addi r4,r4,16
    2b08:	d4 1c 90 00 	l.sw 0(r28),r18
    2b0c:	d4 1c 10 04 	l.sw 4(r28),r2
    2b10:	d4 01 20 84 	l.sw 132(r1),r4
    2b14:	bd 45 00 07 	l.sfgtsi r5,7
    2b18:	0f ff ff f6 	l.bnf 2af0 <_vfprintf_r+0x47c>
    2b1c:	d4 01 28 80 	l.sw 128(r1),r5
    2b20:	a8 74 00 00 	l.ori r3,r20,0x0
    2b24:	a8 9a 00 00 	l.ori r4,r26,0x0
    2b28:	04 00 1e ab 	l.jal a5d4 <__sprint_r>
    2b2c:	9c a1 00 7c 	l.addi r5,r1,124
    2b30:	bc 2b 00 00 	l.sfnei r11,0
    2b34:	13 ff ff 9f 	l.bf 29b0 <_vfprintf_r+0x33c>
    2b38:	9d ce ff f0 	l.addi r14,r14,-16
    2b3c:	84 81 00 84 	l.lwz r4,132(r1)
    2b40:	bd 4e 00 10 	l.sfgtsi r14,16
    2b44:	84 a1 00 80 	l.lwz r5,128(r1)
    2b48:	13 ff ff ee 	l.bf 2b00 <_vfprintf_r+0x48c>
    2b4c:	ab 96 00 00 	l.ori r28,r22,0x0
    2b50:	a8 65 00 00 	l.ori r3,r5,0x0
    2b54:	9c 63 00 01 	l.addi r3,r3,1
    2b58:	e0 4e 20 00 	l.add r2,r14,r4
    2b5c:	d4 1c 90 00 	l.sw 0(r28),r18
    2b60:	d4 1c 70 04 	l.sw 4(r28),r14
    2b64:	d4 01 10 84 	l.sw 132(r1),r2
    2b68:	bd 43 00 07 	l.sfgtsi r3,7
    2b6c:	10 00 03 97 	l.bf 39c8 <_vfprintf_r+0x1354>
    2b70:	d4 01 18 80 	l.sw 128(r1),r3
    2b74:	9f 9c 00 08 	l.addi r28,r28,8
    2b78:	00 00 01 6c 	l.j 3128 <_vfprintf_r+0xab4>
    2b7c:	92 41 00 61 	l.lbs r18,97(r1)
    2b80:	a4 7e 00 10 	l.andi r3,r30,0x10
    2b84:	d4 01 30 3c 	l.sw 60(r1),r6
    2b88:	d4 01 20 18 	l.sw 24(r1),r4
    2b8c:	bc 03 00 00 	l.sfeqi r3,0
    2b90:	10 00 00 e0 	l.bf 2f10 <_vfprintf_r+0x89c>
    2b94:	84 41 00 24 	l.lwz r2,36(r1)
    2b98:	84 e1 00 24 	l.lwz r7,36(r1)
    2b9c:	9c 80 00 01 	l.addi r4,r0,1
    2ba0:	9c e7 00 04 	l.addi r7,r7,4
    2ba4:	d4 01 38 24 	l.sw 36(r1),r7
    2ba8:	84 42 00 00 	l.lwz r2,0(r2)
    2bac:	9c 60 00 00 	l.addi r3,r0,0
    2bb0:	9e 40 00 00 	l.addi r18,r0,0
    2bb4:	d8 01 18 61 	l.sb 97(r1),r3
    2bb8:	84 a1 00 14 	l.lwz r5,20(r1)
    2bbc:	bd 85 00 00 	l.sfltsi r5,0
    2bc0:	10 00 00 04 	l.bf 2bd0 <_vfprintf_r+0x55c>
    2bc4:	9c e0 ff 7f 	l.addi r7,r0,-129
    2bc8:	e3 de 38 03 	l.and r30,r30,r7
    2bcc:	84 a1 00 14 	l.lwz r5,20(r1)
    2bd0:	e0 60 28 02 	l.sub r3,r0,r5
    2bd4:	e0 63 28 04 	l.or r3,r3,r5
    2bd8:	bd 83 00 00 	l.sfltsi r3,0
    2bdc:	10 00 02 9e 	l.bf 3654 <_vfprintf_r+0xfe0>
    2be0:	e0 60 10 02 	l.sub r3,r0,r2
    2be4:	e0 63 10 04 	l.or r3,r3,r2
    2be8:	b8 63 00 5f 	l.srli r3,r3,0x1f
    2bec:	bc 03 00 00 	l.sfeqi r3,0
    2bf0:	0c 00 02 99 	l.bnf 3654 <_vfprintf_r+0xfe0>
    2bf4:	bc 24 00 00 	l.sfnei r4,0
    2bf8:	10 00 03 0a 	l.bf 3820 <_vfprintf_r+0x11ac>
    2bfc:	a4 5e 00 01 	l.andi r2,r30,0x1
    2c00:	bc 02 00 00 	l.sfeqi r2,0
    2c04:	10 00 03 6e 	l.bf 39bc <_vfprintf_r+0x1348>
    2c08:	9c 60 00 30 	l.addi r3,r0,48
    2c0c:	84 41 00 5c 	l.lwz r2,92(r1)
    2c10:	d8 01 18 af 	l.sb 175(r1),r3
    2c14:	9c 61 00 af 	l.addi r3,r1,175
    2c18:	d4 01 10 20 	l.sw 32(r1),r2
    2c1c:	d4 01 18 38 	l.sw 56(r1),r3
    2c20:	84 41 00 20 	l.lwz r2,32(r1)
    2c24:	84 61 00 14 	l.lwz r3,20(r1)
    2c28:	e5 62 18 00 	l.sfges r2,r3
    2c2c:	10 00 00 03 	l.bf 2c38 <_vfprintf_r+0x5c4>
    2c30:	15 00 00 00 	l.nop 0x0
    2c34:	a8 43 00 00 	l.ori r2,r3,0x0
    2c38:	d4 01 10 1c 	l.sw 28(r1),r2
    2c3c:	9c 40 00 00 	l.addi r2,r0,0
    2c40:	03 ff ff 8c 	l.j 2a70 <_vfprintf_r+0x3fc>
    2c44:	d4 01 10 40 	l.sw 64(r1),r2
    2c48:	bc 25 00 00 	l.sfnei r5,0
    2c4c:	13 ff ff 07 	l.bf 2868 <_vfprintf_r+0x1f4>
    2c50:	a8 44 00 00 	l.ori r2,r4,0x0
    2c54:	03 ff ff 05 	l.j 2868 <_vfprintf_r+0x1f4>
    2c58:	9c a0 00 20 	l.addi r5,r0,32
    2c5c:	ab de 00 01 	l.ori r30,r30,0x1
    2c60:	03 ff ff 02 	l.j 2868 <_vfprintf_r+0x1f4>
    2c64:	a8 44 00 00 	l.ori r2,r4,0x0
    2c68:	90 c4 00 00 	l.lbs r6,0(r4)
    2c6c:	bc 06 00 2a 	l.sfeqi r6,42
    2c70:	10 00 06 84 	l.bf 4680 <_vfprintf_r+0x200c>
    2c74:	9c 44 00 01 	l.addi r2,r4,1
    2c78:	9c e6 ff d0 	l.addi r7,r6,-48
    2c7c:	a8 82 00 00 	l.ori r4,r2,0x0
    2c80:	bc a7 00 09 	l.sfleui r7,9
    2c84:	0c 00 00 0e 	l.bnf 2cbc <_vfprintf_r+0x648>
    2c88:	9c 60 00 00 	l.addi r3,r0,0
    2c8c:	e0 63 18 00 	l.add r3,r3,r3
    2c90:	90 c4 00 00 	l.lbs r6,0(r4)
    2c94:	b8 43 00 02 	l.slli r2,r3,0x2
    2c98:	e0 63 10 00 	l.add r3,r3,r2
    2c9c:	e0 67 18 00 	l.add r3,r7,r3
    2ca0:	9c e6 ff d0 	l.addi r7,r6,-48
    2ca4:	bc a7 00 09 	l.sfleui r7,9
    2ca8:	13 ff ff f9 	l.bf 2c8c <_vfprintf_r+0x618>
    2cac:	9c 84 00 01 	l.addi r4,r4,1
    2cb0:	bd 63 00 00 	l.sfgesi r3,0
    2cb4:	0c 00 05 0f 	l.bnf 40f0 <_vfprintf_r+0x1a7c>
    2cb8:	15 00 00 00 	l.nop 0x0
    2cbc:	03 ff fe ed 	l.j 2870 <_vfprintf_r+0x1fc>
    2cc0:	d4 01 18 14 	l.sw 20(r1),r3
    2cc4:	ab de 00 80 	l.ori r30,r30,0x80
    2cc8:	03 ff fe e8 	l.j 2868 <_vfprintf_r+0x1f4>
    2ccc:	a8 44 00 00 	l.ori r2,r4,0x0
    2cd0:	d4 01 20 18 	l.sw 24(r1),r4
    2cd4:	a4 9e 00 10 	l.andi r4,r30,0x10
    2cd8:	d4 01 30 3c 	l.sw 60(r1),r6
    2cdc:	bc 04 00 00 	l.sfeqi r4,0
    2ce0:	10 00 00 7c 	l.bf 2ed0 <_vfprintf_r+0x85c>
    2ce4:	84 41 00 24 	l.lwz r2,36(r1)
    2ce8:	84 a1 00 24 	l.lwz r5,36(r1)
    2cec:	9c 80 00 00 	l.addi r4,r0,0
    2cf0:	9c a5 00 04 	l.addi r5,r5,4
    2cf4:	d4 01 28 24 	l.sw 36(r1),r5
    2cf8:	03 ff ff ad 	l.j 2bac <_vfprintf_r+0x538>
    2cfc:	84 42 00 00 	l.lwz r2,0(r2)
    2d00:	84 a1 00 24 	l.lwz r5,36(r1)
    2d04:	d4 01 20 18 	l.sw 24(r1),r4
    2d08:	84 45 00 00 	l.lwz r2,0(r5)
    2d0c:	18 80 00 01 	l.movhi r4,0x1
    2d10:	9c a5 00 04 	l.addi r5,r5,4
    2d14:	a8 84 14 a3 	l.ori r4,r4,0x14a3
    2d18:	9c e0 00 30 	l.addi r7,r0,48
    2d1c:	9c 60 00 78 	l.addi r3,r0,120
    2d20:	d4 01 28 24 	l.sw 36(r1),r5
    2d24:	9c a0 00 78 	l.addi r5,r0,120
    2d28:	d4 01 20 58 	l.sw 88(r1),r4
    2d2c:	ab de 00 02 	l.ori r30,r30,0x2
    2d30:	d8 01 38 62 	l.sb 98(r1),r7
    2d34:	d8 01 18 63 	l.sb 99(r1),r3
    2d38:	9c 80 00 02 	l.addi r4,r0,2
    2d3c:	03 ff ff 9c 	l.j 2bac <_vfprintf_r+0x538>
    2d40:	d4 01 28 3c 	l.sw 60(r1),r5
    2d44:	9c 40 00 00 	l.addi r2,r0,0
    2d48:	a8 64 00 00 	l.ori r3,r4,0x0
    2d4c:	d4 01 10 28 	l.sw 40(r1),r2
    2d50:	9c e6 ff d0 	l.addi r7,r6,-48
    2d54:	e0 42 10 00 	l.add r2,r2,r2
    2d58:	90 c3 00 00 	l.lbs r6,0(r3)
    2d5c:	b8 62 00 02 	l.slli r3,r2,0x2
    2d60:	9c 84 00 01 	l.addi r4,r4,1
    2d64:	e0 42 18 00 	l.add r2,r2,r3
    2d68:	e0 42 38 00 	l.add r2,r2,r7
    2d6c:	9c e6 ff d0 	l.addi r7,r6,-48
    2d70:	bc a7 00 09 	l.sfleui r7,9
    2d74:	13 ff ff f8 	l.bf 2d54 <_vfprintf_r+0x6e0>
    2d78:	a8 64 00 00 	l.ori r3,r4,0x0
    2d7c:	03 ff fe bd 	l.j 2870 <_vfprintf_r+0x1fc>
    2d80:	d4 01 10 28 	l.sw 40(r1),r2
    2d84:	ab de 00 10 	l.ori r30,r30,0x10
    2d88:	d4 01 30 3c 	l.sw 60(r1),r6
    2d8c:	a4 7e 00 10 	l.andi r3,r30,0x10
    2d90:	d4 01 20 18 	l.sw 24(r1),r4
    2d94:	d8 01 28 61 	l.sb 97(r1),r5
    2d98:	bc 03 00 00 	l.sfeqi r3,0
    2d9c:	10 00 00 9b 	l.bf 3008 <_vfprintf_r+0x994>
    2da0:	84 41 00 24 	l.lwz r2,36(r1)
    2da4:	84 61 00 24 	l.lwz r3,36(r1)
    2da8:	9c 63 00 04 	l.addi r3,r3,4
    2dac:	d4 01 18 24 	l.sw 36(r1),r3
    2db0:	84 42 00 00 	l.lwz r2,0(r2)
    2db4:	bd 82 00 00 	l.sfltsi r2,0
    2db8:	10 00 03 c7 	l.bf 3cd4 <_vfprintf_r+0x1660>
    2dbc:	9c e0 00 2d 	l.addi r7,r0,45
    2dc0:	92 41 00 61 	l.lbs r18,97(r1)
    2dc4:	03 ff ff 7d 	l.j 2bb8 <_vfprintf_r+0x544>
    2dc8:	9c 80 00 01 	l.addi r4,r0,1
    2dcc:	84 41 00 24 	l.lwz r2,36(r1)
    2dd0:	d4 01 30 3c 	l.sw 60(r1),r6
    2dd4:	84 42 00 00 	l.lwz r2,0(r2)
    2dd8:	d4 01 20 18 	l.sw 24(r1),r4
    2ddc:	d4 01 10 48 	l.sw 72(r1),r2
    2de0:	84 41 00 24 	l.lwz r2,36(r1)
    2de4:	84 c1 00 48 	l.lwz r6,72(r1)
    2de8:	84 42 00 04 	l.lwz r2,4(r2)
    2dec:	d8 01 28 61 	l.sb 97(r1),r5
    2df0:	a8 82 00 00 	l.ori r4,r2,0x0
    2df4:	d4 01 10 4c 	l.sw 76(r1),r2
    2df8:	a8 64 00 00 	l.ori r3,r4,0x0
    2dfc:	a8 46 00 00 	l.ori r2,r6,0x0
    2e00:	84 81 00 24 	l.lwz r4,36(r1)
    2e04:	9d c4 00 08 	l.addi r14,r4,8
    2e08:	e0 83 00 04 	l.or r4,r3,r0
    2e0c:	e0 62 00 04 	l.or r3,r2,r0
    2e10:	04 00 1c 89 	l.jal a034 <__fpclassifyd>
    2e14:	15 00 00 00 	l.nop 0x0
    2e18:	84 a1 00 48 	l.lwz r5,72(r1)
    2e1c:	bc 2b 00 01 	l.sfnei r11,1
    2e20:	84 81 00 4c 	l.lwz r4,76(r1)
    2e24:	10 00 03 b1 	l.bf 3ce8 <_vfprintf_r+0x1674>
    2e28:	a8 45 00 00 	l.ori r2,r5,0x0
    2e2c:	18 e0 00 01 	l.movhi r7,0x1
    2e30:	a8 64 00 00 	l.ori r3,r4,0x0
    2e34:	a8 e7 14 c0 	l.ori r7,r7,0x14c0
    2e38:	e0 83 00 04 	l.or r4,r3,r0
    2e3c:	e0 62 00 04 	l.or r3,r2,r0
    2e40:	84 a7 00 00 	l.lwz r5,0(r7)
    2e44:	84 c7 00 04 	l.lwz r6,4(r7)
    2e48:	04 00 33 58 	l.jal fba8 <__ledf2>
    2e4c:	15 00 00 00 	l.nop 0x0
    2e50:	bd 8b 00 00 	l.sfltsi r11,0
    2e54:	10 00 05 74 	l.bf 4424 <_vfprintf_r+0x1db0>
    2e58:	9c 40 00 2d 	l.addi r2,r0,45
    2e5c:	92 41 00 61 	l.lbs r18,97(r1)
    2e60:	18 80 00 01 	l.movhi r4,0x1
    2e64:	84 61 00 3c 	l.lwz r3,60(r1)
    2e68:	a8 84 14 86 	l.ori r4,r4,0x1486
    2e6c:	bd 43 00 47 	l.sfgtsi r3,71
    2e70:	0c 00 04 9c 	l.bnf 40e0 <_vfprintf_r+0x1a6c>
    2e74:	d4 01 20 38 	l.sw 56(r1),r4
    2e78:	9c 40 00 03 	l.addi r2,r0,3
    2e7c:	9c 60 ff 7f 	l.addi r3,r0,-129
    2e80:	d4 01 10 1c 	l.sw 28(r1),r2
    2e84:	9c 40 00 00 	l.addi r2,r0,0
    2e88:	e3 de 18 03 	l.and r30,r30,r3
    2e8c:	d4 01 10 14 	l.sw 20(r1),r2
    2e90:	84 41 00 1c 	l.lwz r2,28(r1)
    2e94:	d4 01 70 24 	l.sw 36(r1),r14
    2e98:	d4 01 10 20 	l.sw 32(r1),r2
    2e9c:	84 41 00 14 	l.lwz r2,20(r1)
    2ea0:	03 ff fe f4 	l.j 2a70 <_vfprintf_r+0x3fc>
    2ea4:	d4 01 10 40 	l.sw 64(r1),r2
    2ea8:	ab de 00 08 	l.ori r30,r30,0x8
    2eac:	03 ff fe 6f 	l.j 2868 <_vfprintf_r+0x1f4>
    2eb0:	a8 44 00 00 	l.ori r2,r4,0x0
    2eb4:	ab de 00 10 	l.ori r30,r30,0x10
    2eb8:	d4 01 20 18 	l.sw 24(r1),r4
    2ebc:	a4 9e 00 10 	l.andi r4,r30,0x10
    2ec0:	d4 01 30 3c 	l.sw 60(r1),r6
    2ec4:	bc 04 00 00 	l.sfeqi r4,0
    2ec8:	0f ff ff 88 	l.bnf 2ce8 <_vfprintf_r+0x674>
    2ecc:	84 41 00 24 	l.lwz r2,36(r1)
    2ed0:	a4 7e 00 40 	l.andi r3,r30,0x40
    2ed4:	bc 03 00 00 	l.sfeqi r3,0
    2ed8:	10 00 04 10 	l.bf 3f18 <_vfprintf_r+0x18a4>
    2edc:	84 e1 00 24 	l.lwz r7,36(r1)
    2ee0:	84 42 00 00 	l.lwz r2,0(r2)
    2ee4:	9c e7 00 04 	l.addi r7,r7,4
    2ee8:	a4 42 ff ff 	l.andi r2,r2,0xffff
    2eec:	03 ff ff 30 	l.j 2bac <_vfprintf_r+0x538>
    2ef0:	d4 01 38 24 	l.sw 36(r1),r7
    2ef4:	ab de 00 10 	l.ori r30,r30,0x10
    2ef8:	d4 01 30 3c 	l.sw 60(r1),r6
    2efc:	a4 7e 00 10 	l.andi r3,r30,0x10
    2f00:	d4 01 20 18 	l.sw 24(r1),r4
    2f04:	bc 03 00 00 	l.sfeqi r3,0
    2f08:	0f ff ff 24 	l.bnf 2b98 <_vfprintf_r+0x524>
    2f0c:	84 41 00 24 	l.lwz r2,36(r1)
    2f10:	a4 7e 00 40 	l.andi r3,r30,0x40
    2f14:	bc 03 00 00 	l.sfeqi r3,0
    2f18:	10 00 03 fa 	l.bf 3f00 <_vfprintf_r+0x188c>
    2f1c:	84 61 00 24 	l.lwz r3,36(r1)
    2f20:	84 42 00 00 	l.lwz r2,0(r2)
    2f24:	9c 63 00 04 	l.addi r3,r3,4
    2f28:	a4 42 ff ff 	l.andi r2,r2,0xffff
    2f2c:	d4 01 18 24 	l.sw 36(r1),r3
    2f30:	03 ff ff 1f 	l.j 2bac <_vfprintf_r+0x538>
    2f34:	9c 80 00 01 	l.addi r4,r0,1
    2f38:	18 60 00 01 	l.movhi r3,0x1
    2f3c:	d4 01 30 3c 	l.sw 60(r1),r6
    2f40:	a8 63 14 92 	l.ori r3,r3,0x1492
    2f44:	d4 01 20 18 	l.sw 24(r1),r4
    2f48:	d4 01 18 58 	l.sw 88(r1),r3
    2f4c:	a4 7e 00 10 	l.andi r3,r30,0x10
    2f50:	d8 01 28 61 	l.sb 97(r1),r5
    2f54:	bc 03 00 00 	l.sfeqi r3,0
    2f58:	10 00 00 42 	l.bf 3060 <_vfprintf_r+0x9ec>
    2f5c:	84 41 00 24 	l.lwz r2,36(r1)
    2f60:	84 e1 00 24 	l.lwz r7,36(r1)
    2f64:	9c e7 00 04 	l.addi r7,r7,4
    2f68:	d4 01 38 24 	l.sw 36(r1),r7
    2f6c:	84 42 00 00 	l.lwz r2,0(r2)
    2f70:	a4 7e 00 01 	l.andi r3,r30,0x1
    2f74:	bc 03 00 00 	l.sfeqi r3,0
    2f78:	13 ff ff 0d 	l.bf 2bac <_vfprintf_r+0x538>
    2f7c:	9c 80 00 02 	l.addi r4,r0,2
    2f80:	bc 02 00 00 	l.sfeqi r2,0
    2f84:	13 ff ff 0b 	l.bf 2bb0 <_vfprintf_r+0x53c>
    2f88:	9c 60 00 00 	l.addi r3,r0,0
    2f8c:	9c a0 00 30 	l.addi r5,r0,48
    2f90:	84 e1 00 3c 	l.lwz r7,60(r1)
    2f94:	d8 01 28 62 	l.sb 98(r1),r5
    2f98:	d8 01 38 63 	l.sb 99(r1),r7
    2f9c:	03 ff ff 05 	l.j 2bb0 <_vfprintf_r+0x53c>
    2fa0:	e3 de 20 04 	l.or r30,r30,r4
    2fa4:	84 61 00 24 	l.lwz r3,36(r1)
    2fa8:	9e 40 00 00 	l.addi r18,r0,0
    2fac:	84 43 00 00 	l.lwz r2,0(r3)
    2fb0:	d4 01 20 18 	l.sw 24(r1),r4
    2fb4:	9c a0 00 00 	l.addi r5,r0,0
    2fb8:	9c 80 00 01 	l.addi r4,r0,1
    2fbc:	9c 63 00 04 	l.addi r3,r3,4
    2fc0:	9c e1 00 88 	l.addi r7,r1,136
    2fc4:	d4 01 30 3c 	l.sw 60(r1),r6
    2fc8:	d4 01 20 1c 	l.sw 28(r1),r4
    2fcc:	d8 01 10 88 	l.sb 136(r1),r2
    2fd0:	d8 01 28 61 	l.sb 97(r1),r5
    2fd4:	d4 01 18 24 	l.sw 36(r1),r3
    2fd8:	d4 01 20 20 	l.sw 32(r1),r4
    2fdc:	d4 01 90 14 	l.sw 20(r1),r18
    2fe0:	d4 01 90 40 	l.sw 64(r1),r18
    2fe4:	03 ff fe a9 	l.j 2a88 <_vfprintf_r+0x414>
    2fe8:	d4 01 38 38 	l.sw 56(r1),r7
    2fec:	a4 7e 00 10 	l.andi r3,r30,0x10
    2ff0:	d4 01 30 3c 	l.sw 60(r1),r6
    2ff4:	d4 01 20 18 	l.sw 24(r1),r4
    2ff8:	d8 01 28 61 	l.sb 97(r1),r5
    2ffc:	bc 03 00 00 	l.sfeqi r3,0
    3000:	0f ff ff 69 	l.bnf 2da4 <_vfprintf_r+0x730>
    3004:	84 41 00 24 	l.lwz r2,36(r1)
    3008:	a4 7e 00 40 	l.andi r3,r30,0x40
    300c:	bc 03 00 00 	l.sfeqi r3,0
    3010:	10 00 03 d2 	l.bf 3f58 <_vfprintf_r+0x18e4>
    3014:	84 a1 00 24 	l.lwz r5,36(r1)
    3018:	84 81 00 24 	l.lwz r4,36(r1)
    301c:	98 42 00 02 	l.lhs r2,2(r2)
    3020:	9c 84 00 04 	l.addi r4,r4,4
    3024:	03 ff ff 64 	l.j 2db4 <_vfprintf_r+0x740>
    3028:	d4 01 20 24 	l.sw 36(r1),r4
    302c:	ab de 00 40 	l.ori r30,r30,0x40
    3030:	03 ff fe 0e 	l.j 2868 <_vfprintf_r+0x1f4>
    3034:	a8 44 00 00 	l.ori r2,r4,0x0
    3038:	d8 01 28 61 	l.sb 97(r1),r5
    303c:	18 a0 00 01 	l.movhi r5,0x1
    3040:	a4 7e 00 10 	l.andi r3,r30,0x10
    3044:	a8 a5 14 a3 	l.ori r5,r5,0x14a3
    3048:	d4 01 30 3c 	l.sw 60(r1),r6
    304c:	d4 01 20 18 	l.sw 24(r1),r4
    3050:	d4 01 28 58 	l.sw 88(r1),r5
    3054:	bc 03 00 00 	l.sfeqi r3,0
    3058:	0f ff ff c2 	l.bnf 2f60 <_vfprintf_r+0x8ec>
    305c:	84 41 00 24 	l.lwz r2,36(r1)
    3060:	a4 7e 00 40 	l.andi r3,r30,0x40
    3064:	bc 03 00 00 	l.sfeqi r3,0
    3068:	10 00 03 a1 	l.bf 3eec <_vfprintf_r+0x1878>
    306c:	84 61 00 24 	l.lwz r3,36(r1)
    3070:	84 42 00 00 	l.lwz r2,0(r2)
    3074:	9c 63 00 04 	l.addi r3,r3,4
    3078:	a4 42 ff ff 	l.andi r2,r2,0xffff
    307c:	03 ff ff bd 	l.j 2f70 <_vfprintf_r+0x8fc>
    3080:	d4 01 18 24 	l.sw 36(r1),r3
    3084:	a4 5e 00 10 	l.andi r2,r30,0x10
    3088:	d4 01 20 18 	l.sw 24(r1),r4
    308c:	bc 02 00 00 	l.sfeqi r2,0
    3090:	0c 00 00 1e 	l.bnf 3108 <_vfprintf_r+0xa94>
    3094:	d8 01 28 61 	l.sb 97(r1),r5
    3098:	a4 5e 00 40 	l.andi r2,r30,0x40
    309c:	bc 02 00 00 	l.sfeqi r2,0
    30a0:	10 00 00 1b 	l.bf 310c <_vfprintf_r+0xa98>
    30a4:	84 61 00 24 	l.lwz r3,36(r1)
    30a8:	84 a1 00 24 	l.lwz r5,36(r1)
    30ac:	84 e1 00 30 	l.lwz r7,48(r1)
    30b0:	84 45 00 00 	l.lwz r2,0(r5)
    30b4:	9c a5 00 04 	l.addi r5,r5,4
    30b8:	dc 02 38 00 	l.sh 0(r2),r7
    30bc:	03 ff fd b6 	l.j 2794 <_vfprintf_r+0x120>
    30c0:	d4 01 28 24 	l.sw 36(r1),r5
    30c4:	d4 01 30 3c 	l.sw 60(r1),r6
    30c8:	d4 01 20 18 	l.sw 24(r1),r4
    30cc:	bc 06 00 00 	l.sfeqi r6,0
    30d0:	13 ff fe 31 	l.bf 2994 <_vfprintf_r+0x320>
    30d4:	d8 01 28 61 	l.sb 97(r1),r5
    30d8:	9e 40 00 00 	l.addi r18,r0,0
    30dc:	9c 40 00 01 	l.addi r2,r0,1
    30e0:	9c 60 00 00 	l.addi r3,r0,0
    30e4:	9c 81 00 88 	l.addi r4,r1,136
    30e8:	d4 01 10 1c 	l.sw 28(r1),r2
    30ec:	d8 01 30 88 	l.sb 136(r1),r6
    30f0:	d8 01 18 61 	l.sb 97(r1),r3
    30f4:	d4 01 10 20 	l.sw 32(r1),r2
    30f8:	d4 01 90 14 	l.sw 20(r1),r18
    30fc:	d4 01 90 40 	l.sw 64(r1),r18
    3100:	03 ff fe 62 	l.j 2a88 <_vfprintf_r+0x414>
    3104:	d4 01 20 38 	l.sw 56(r1),r4
    3108:	84 61 00 24 	l.lwz r3,36(r1)
    310c:	84 81 00 30 	l.lwz r4,48(r1)
    3110:	84 43 00 00 	l.lwz r2,0(r3)
    3114:	9c 63 00 04 	l.addi r3,r3,4
    3118:	d4 01 18 24 	l.sw 36(r1),r3
    311c:	03 ff fd 9e 	l.j 2794 <_vfprintf_r+0x120>
    3120:	d4 02 20 00 	l.sw 0(r2),r4
    3124:	84 41 00 84 	l.lwz r2,132(r1)
    3128:	bc 12 00 00 	l.sfeqi r18,0
    312c:	10 00 00 0f 	l.bf 3168 <_vfprintf_r+0xaf4>
    3130:	84 a1 00 34 	l.lwz r5,52(r1)
    3134:	84 61 00 80 	l.lwz r3,128(r1)
    3138:	9c 81 00 61 	l.addi r4,r1,97
    313c:	9c 63 00 01 	l.addi r3,r3,1
    3140:	9c 42 00 01 	l.addi r2,r2,1
    3144:	d4 1c 20 00 	l.sw 0(r28),r4
    3148:	9c 80 00 01 	l.addi r4,r0,1
    314c:	d4 01 10 84 	l.sw 132(r1),r2
    3150:	d4 1c 20 04 	l.sw 4(r28),r4
    3154:	bd 43 00 07 	l.sfgtsi r3,7
    3158:	10 00 01 be 	l.bf 3850 <_vfprintf_r+0x11dc>
    315c:	d4 01 18 80 	l.sw 128(r1),r3
    3160:	9f 9c 00 08 	l.addi r28,r28,8
    3164:	84 a1 00 34 	l.lwz r5,52(r1)
    3168:	bc 05 00 00 	l.sfeqi r5,0
    316c:	10 00 00 0f 	l.bf 31a8 <_vfprintf_r+0xb34>
    3170:	bc 38 00 80 	l.sfnei r24,128
    3174:	84 61 00 80 	l.lwz r3,128(r1)
    3178:	9c 42 00 02 	l.addi r2,r2,2
    317c:	9c 63 00 01 	l.addi r3,r3,1
    3180:	9c e1 00 62 	l.addi r7,r1,98
    3184:	9c 80 00 02 	l.addi r4,r0,2
    3188:	d4 1c 38 00 	l.sw 0(r28),r7
    318c:	d4 1c 20 04 	l.sw 4(r28),r4
    3190:	d4 01 10 84 	l.sw 132(r1),r2
    3194:	bd 43 00 07 	l.sfgtsi r3,7
    3198:	10 00 01 b7 	l.bf 3874 <_vfprintf_r+0x1200>
    319c:	d4 01 18 80 	l.sw 128(r1),r3
    31a0:	9f 9c 00 08 	l.addi r28,r28,8
    31a4:	bc 38 00 80 	l.sfnei r24,128
    31a8:	0c 00 01 53 	l.bnf 36f4 <_vfprintf_r+0x1080>
    31ac:	84 61 00 28 	l.lwz r3,40(r1)
    31b0:	84 a1 00 14 	l.lwz r5,20(r1)
    31b4:	84 e1 00 20 	l.lwz r7,32(r1)
    31b8:	e2 45 38 02 	l.sub r18,r5,r7
    31bc:	bd b2 00 00 	l.sflesi r18,0
    31c0:	10 00 00 2c 	l.bf 3270 <_vfprintf_r+0xbfc>
    31c4:	84 61 00 80 	l.lwz r3,128(r1)
    31c8:	19 c0 00 01 	l.movhi r14,0x1
    31cc:	bd 52 00 10 	l.sfgtsi r18,16
    31d0:	a9 ce 16 2c 	l.ori r14,r14,0x162c
    31d4:	9f 00 00 10 	l.addi r24,r0,16
    31d8:	10 00 00 08 	l.bf 31f8 <_vfprintf_r+0xb84>
    31dc:	a8 a3 00 00 	l.ori r5,r3,0x0
    31e0:	00 00 00 1c 	l.j 3250 <_vfprintf_r+0xbdc>
    31e4:	9c 63 00 01 	l.addi r3,r3,1
    31e8:	9e 52 ff f0 	l.addi r18,r18,-16
    31ec:	bd 52 00 10 	l.sfgtsi r18,16
    31f0:	0c 00 00 16 	l.bnf 3248 <_vfprintf_r+0xbd4>
    31f4:	9f 9c 00 08 	l.addi r28,r28,8
    31f8:	9c a5 00 01 	l.addi r5,r5,1
    31fc:	9c 42 00 10 	l.addi r2,r2,16
    3200:	d4 1c 70 00 	l.sw 0(r28),r14
    3204:	d4 1c c0 04 	l.sw 4(r28),r24
    3208:	d4 01 10 84 	l.sw 132(r1),r2
    320c:	bd 45 00 07 	l.sfgtsi r5,7
    3210:	0f ff ff f6 	l.bnf 31e8 <_vfprintf_r+0xb74>
    3214:	d4 01 28 80 	l.sw 128(r1),r5
    3218:	a8 74 00 00 	l.ori r3,r20,0x0
    321c:	a8 9a 00 00 	l.ori r4,r26,0x0
    3220:	04 00 1c ed 	l.jal a5d4 <__sprint_r>
    3224:	9c a1 00 7c 	l.addi r5,r1,124
    3228:	bc 2b 00 00 	l.sfnei r11,0
    322c:	13 ff fd e1 	l.bf 29b0 <_vfprintf_r+0x33c>
    3230:	9e 52 ff f0 	l.addi r18,r18,-16
    3234:	84 41 00 84 	l.lwz r2,132(r1)
    3238:	bd 52 00 10 	l.sfgtsi r18,16
    323c:	84 a1 00 80 	l.lwz r5,128(r1)
    3240:	13 ff ff ee 	l.bf 31f8 <_vfprintf_r+0xb84>
    3244:	ab 96 00 00 	l.ori r28,r22,0x0
    3248:	a8 65 00 00 	l.ori r3,r5,0x0
    324c:	9c 63 00 01 	l.addi r3,r3,1
    3250:	e0 42 90 00 	l.add r2,r2,r18
    3254:	d4 1c 70 00 	l.sw 0(r28),r14
    3258:	d4 1c 90 04 	l.sw 4(r28),r18
    325c:	d4 01 10 84 	l.sw 132(r1),r2
    3260:	bd 43 00 07 	l.sfgtsi r3,7
    3264:	10 00 01 72 	l.bf 382c <_vfprintf_r+0x11b8>
    3268:	d4 01 18 80 	l.sw 128(r1),r3
    326c:	9f 9c 00 08 	l.addi r28,r28,8
    3270:	a4 7e 01 00 	l.andi r3,r30,0x100
    3274:	bc 23 00 00 	l.sfnei r3,0
    3278:	10 00 00 9f 	l.bf 34f4 <_vfprintf_r+0xe80>
    327c:	84 e1 00 3c 	l.lwz r7,60(r1)
    3280:	84 61 00 20 	l.lwz r3,32(r1)
    3284:	84 81 00 38 	l.lwz r4,56(r1)
    3288:	e0 42 18 00 	l.add r2,r2,r3
    328c:	84 61 00 80 	l.lwz r3,128(r1)
    3290:	84 a1 00 20 	l.lwz r5,32(r1)
    3294:	9c 63 00 01 	l.addi r3,r3,1
    3298:	d4 1c 20 00 	l.sw 0(r28),r4
    329c:	d4 1c 28 04 	l.sw 4(r28),r5
    32a0:	d4 01 10 84 	l.sw 132(r1),r2
    32a4:	bd 43 00 07 	l.sfgtsi r3,7
    32a8:	10 00 00 8a 	l.bf 34d0 <_vfprintf_r+0xe5c>
    32ac:	d4 01 18 80 	l.sw 128(r1),r3
    32b0:	9f 9c 00 08 	l.addi r28,r28,8
    32b4:	a4 7e 00 04 	l.andi r3,r30,0x4
    32b8:	bc 03 00 00 	l.sfeqi r3,0
    32bc:	10 00 00 39 	l.bf 33a0 <_vfprintf_r+0xd2c>
    32c0:	84 61 00 1c 	l.lwz r3,28(r1)
    32c4:	84 61 00 28 	l.lwz r3,40(r1)
    32c8:	84 81 00 1c 	l.lwz r4,28(r1)
    32cc:	e1 c3 20 02 	l.sub r14,r3,r4
    32d0:	bd ae 00 00 	l.sflesi r14,0
    32d4:	10 00 00 32 	l.bf 339c <_vfprintf_r+0xd28>
    32d8:	84 61 00 80 	l.lwz r3,128(r1)
    32dc:	1a 40 00 01 	l.movhi r18,0x1
    32e0:	bd 4e 00 10 	l.sfgtsi r14,16
    32e4:	aa 52 16 3c 	l.ori r18,r18,0x163c
    32e8:	9f 00 00 10 	l.addi r24,r0,16
    32ec:	10 00 00 08 	l.bf 330c <_vfprintf_r+0xc98>
    32f0:	a8 a3 00 00 	l.ori r5,r3,0x0
    32f4:	00 00 00 1c 	l.j 3364 <_vfprintf_r+0xcf0>
    32f8:	9c 63 00 01 	l.addi r3,r3,1
    32fc:	9d ce ff f0 	l.addi r14,r14,-16
    3300:	bd 4e 00 10 	l.sfgtsi r14,16
    3304:	0c 00 00 16 	l.bnf 335c <_vfprintf_r+0xce8>
    3308:	9f 9c 00 08 	l.addi r28,r28,8
    330c:	9c a5 00 01 	l.addi r5,r5,1
    3310:	9c 42 00 10 	l.addi r2,r2,16
    3314:	d4 1c 90 00 	l.sw 0(r28),r18
    3318:	d4 1c c0 04 	l.sw 4(r28),r24
    331c:	d4 01 10 84 	l.sw 132(r1),r2
    3320:	bd 45 00 07 	l.sfgtsi r5,7
    3324:	0f ff ff f6 	l.bnf 32fc <_vfprintf_r+0xc88>
    3328:	d4 01 28 80 	l.sw 128(r1),r5
    332c:	a8 74 00 00 	l.ori r3,r20,0x0
    3330:	a8 9a 00 00 	l.ori r4,r26,0x0
    3334:	04 00 1c a8 	l.jal a5d4 <__sprint_r>
    3338:	9c a1 00 7c 	l.addi r5,r1,124
    333c:	bc 2b 00 00 	l.sfnei r11,0
    3340:	13 ff fd 9c 	l.bf 29b0 <_vfprintf_r+0x33c>
    3344:	9d ce ff f0 	l.addi r14,r14,-16
    3348:	84 41 00 84 	l.lwz r2,132(r1)
    334c:	bd 4e 00 10 	l.sfgtsi r14,16
    3350:	84 a1 00 80 	l.lwz r5,128(r1)
    3354:	13 ff ff ee 	l.bf 330c <_vfprintf_r+0xc98>
    3358:	ab 96 00 00 	l.ori r28,r22,0x0
    335c:	a8 65 00 00 	l.ori r3,r5,0x0
    3360:	9c 63 00 01 	l.addi r3,r3,1
    3364:	e0 42 70 00 	l.add r2,r2,r14
    3368:	d4 1c 90 00 	l.sw 0(r28),r18
    336c:	d4 1c 70 04 	l.sw 4(r28),r14
    3370:	d4 01 10 84 	l.sw 132(r1),r2
    3374:	bd a3 00 07 	l.sflesi r3,7
    3378:	10 00 00 09 	l.bf 339c <_vfprintf_r+0xd28>
    337c:	d4 01 18 80 	l.sw 128(r1),r3
    3380:	a8 74 00 00 	l.ori r3,r20,0x0
    3384:	a8 9a 00 00 	l.ori r4,r26,0x0
    3388:	04 00 1c 93 	l.jal a5d4 <__sprint_r>
    338c:	9c a1 00 7c 	l.addi r5,r1,124
    3390:	bc 2b 00 00 	l.sfnei r11,0
    3394:	13 ff fd 87 	l.bf 29b0 <_vfprintf_r+0x33c>
    3398:	84 41 00 84 	l.lwz r2,132(r1)
    339c:	84 61 00 1c 	l.lwz r3,28(r1)
    33a0:	84 a1 00 28 	l.lwz r5,40(r1)
    33a4:	e5 63 28 00 	l.sfges r3,r5
    33a8:	10 00 00 03 	l.bf 33b4 <_vfprintf_r+0xd40>
    33ac:	bc 22 00 00 	l.sfnei r2,0
    33b0:	a8 65 00 00 	l.ori r3,r5,0x0
    33b4:	84 41 00 30 	l.lwz r2,48(r1)
    33b8:	e0 42 18 00 	l.add r2,r2,r3
    33bc:	10 00 01 10 	l.bf 37fc <_vfprintf_r+0x1188>
    33c0:	d4 01 10 30 	l.sw 48(r1),r2
    33c4:	9c 60 00 00 	l.addi r3,r0,0
    33c8:	ab 96 00 00 	l.ori r28,r22,0x0
    33cc:	03 ff fc f2 	l.j 2794 <_vfprintf_r+0x120>
    33d0:	d4 01 18 80 	l.sw 128(r1),r3
    33d4:	86 41 00 80 	l.lwz r18,128(r1)
    33d8:	bd 47 00 01 	l.sfgtsi r7,1
    33dc:	9e 52 00 01 	l.addi r18,r18,1
    33e0:	0c 00 02 09 	l.bnf 3c04 <_vfprintf_r+0x1590>
    33e4:	9c 42 00 01 	l.addi r2,r2,1
    33e8:	84 61 00 38 	l.lwz r3,56(r1)
    33ec:	d4 01 10 84 	l.sw 132(r1),r2
    33f0:	d4 1c 18 00 	l.sw 0(r28),r3
    33f4:	9c 60 00 01 	l.addi r3,r0,1
    33f8:	d4 01 90 80 	l.sw 128(r1),r18
    33fc:	bd 52 00 07 	l.sfgtsi r18,7
    3400:	10 00 02 08 	l.bf 3c20 <_vfprintf_r+0x15ac>
    3404:	d4 1c 18 04 	l.sw 4(r28),r3
    3408:	9f 9c 00 08 	l.addi r28,r28,8
    340c:	84 81 00 50 	l.lwz r4,80(r1)
    3410:	9e 52 00 01 	l.addi r18,r18,1
    3414:	e0 42 20 00 	l.add r2,r2,r4
    3418:	84 a1 00 44 	l.lwz r5,68(r1)
    341c:	d4 1c 20 04 	l.sw 4(r28),r4
    3420:	d4 1c 28 00 	l.sw 0(r28),r5
    3424:	d4 01 10 84 	l.sw 132(r1),r2
    3428:	bd 52 00 07 	l.sfgtsi r18,7
    342c:	10 00 02 07 	l.bf 3c48 <_vfprintf_r+0x15d4>
    3430:	d4 01 90 80 	l.sw 128(r1),r18
    3434:	9f 9c 00 08 	l.addi r28,r28,8
    3438:	84 81 00 48 	l.lwz r4,72(r1)
    343c:	84 61 00 4c 	l.lwz r3,76(r1)
    3440:	18 e0 00 01 	l.movhi r7,0x1
    3444:	a9 84 00 00 	l.ori r12,r4,0x0
    3448:	a8 e7 14 c0 	l.ori r7,r7,0x14c0
    344c:	a9 a3 00 00 	l.ori r13,r3,0x0
    3450:	84 a7 00 00 	l.lwz r5,0(r7)
    3454:	84 c7 00 04 	l.lwz r6,4(r7)
    3458:	e0 6c 00 04 	l.or r3,r12,r0
    345c:	e0 8d 00 04 	l.or r4,r13,r0
    3460:	04 00 31 15 	l.jal f8b4 <__eqdf2>
    3464:	15 00 00 00 	l.nop 0x0
    3468:	bc 2b 00 00 	l.sfnei r11,0
    346c:	0c 00 01 61 	l.bnf 39f0 <_vfprintf_r+0x137c>
    3470:	84 e1 00 2c 	l.lwz r7,44(r1)
    3474:	84 81 00 2c 	l.lwz r4,44(r1)
    3478:	84 a1 00 38 	l.lwz r5,56(r1)
    347c:	9c 64 ff ff 	l.addi r3,r4,-1
    3480:	9c 85 00 01 	l.addi r4,r5,1
    3484:	9e 52 00 01 	l.addi r18,r18,1
    3488:	e0 42 18 00 	l.add r2,r2,r3
    348c:	d4 1c 20 00 	l.sw 0(r28),r4
    3490:	d4 1c 18 04 	l.sw 4(r28),r3
    3494:	d4 01 10 84 	l.sw 132(r1),r2
    3498:	bd 52 00 07 	l.sfgtsi r18,7
    349c:	10 00 00 ce 	l.bf 37d4 <_vfprintf_r+0x1160>
    34a0:	d4 01 90 80 	l.sw 128(r1),r18
    34a4:	9f 9c 00 08 	l.addi r28,r28,8
    34a8:	84 a1 00 54 	l.lwz r5,84(r1)
    34ac:	9e 52 00 01 	l.addi r18,r18,1
    34b0:	e0 42 28 00 	l.add r2,r2,r5
    34b4:	9c e1 00 6c 	l.addi r7,r1,108
    34b8:	d4 1c 28 04 	l.sw 4(r28),r5
    34bc:	d4 1c 38 00 	l.sw 0(r28),r7
    34c0:	d4 01 10 84 	l.sw 132(r1),r2
    34c4:	bd 52 00 07 	l.sfgtsi r18,7
    34c8:	0f ff ff 7a 	l.bnf 32b0 <_vfprintf_r+0xc3c>
    34cc:	d4 01 90 80 	l.sw 128(r1),r18
    34d0:	a8 74 00 00 	l.ori r3,r20,0x0
    34d4:	a8 9a 00 00 	l.ori r4,r26,0x0
    34d8:	04 00 1c 3f 	l.jal a5d4 <__sprint_r>
    34dc:	9c a1 00 7c 	l.addi r5,r1,124
    34e0:	bc 2b 00 00 	l.sfnei r11,0
    34e4:	13 ff fd 33 	l.bf 29b0 <_vfprintf_r+0x33c>
    34e8:	84 41 00 84 	l.lwz r2,132(r1)
    34ec:	03 ff ff 72 	l.j 32b4 <_vfprintf_r+0xc40>
    34f0:	ab 96 00 00 	l.ori r28,r22,0x0
    34f4:	bd a7 00 65 	l.sflesi r7,101
    34f8:	13 ff ff b7 	l.bf 33d4 <_vfprintf_r+0xd60>
    34fc:	84 e1 00 2c 	l.lwz r7,44(r1)
    3500:	84 81 00 48 	l.lwz r4,72(r1)
    3504:	84 61 00 4c 	l.lwz r3,76(r1)
    3508:	a9 84 00 00 	l.ori r12,r4,0x0
    350c:	18 80 00 01 	l.movhi r4,0x1
    3510:	a9 a3 00 00 	l.ori r13,r3,0x0
    3514:	a8 84 14 c0 	l.ori r4,r4,0x14c0
    3518:	84 a4 00 00 	l.lwz r5,0(r4)
    351c:	84 c4 00 04 	l.lwz r6,4(r4)
    3520:	e0 6c 00 04 	l.or r3,r12,r0
    3524:	e0 8d 00 04 	l.or r4,r13,r0
    3528:	04 00 30 e3 	l.jal f8b4 <__eqdf2>
    352c:	15 00 00 00 	l.nop 0x0
    3530:	bc 0b 00 00 	l.sfeqi r11,0
    3534:	0c 00 00 d9 	l.bnf 3898 <_vfprintf_r+0x1224>
    3538:	86 41 00 64 	l.lwz r18,100(r1)
    353c:	18 80 00 01 	l.movhi r4,0x1
    3540:	84 61 00 80 	l.lwz r3,128(r1)
    3544:	a8 84 14 bb 	l.ori r4,r4,0x14bb
    3548:	9c 63 00 01 	l.addi r3,r3,1
    354c:	9c 42 00 01 	l.addi r2,r2,1
    3550:	d4 1c 20 00 	l.sw 0(r28),r4
    3554:	9c 80 00 01 	l.addi r4,r0,1
    3558:	d4 01 10 84 	l.sw 132(r1),r2
    355c:	d4 1c 20 04 	l.sw 4(r28),r4
    3560:	bd 43 00 07 	l.sfgtsi r3,7
    3564:	10 00 02 81 	l.bf 3f68 <_vfprintf_r+0x18f4>
    3568:	d4 01 18 80 	l.sw 128(r1),r3
    356c:	9f 9c 00 08 	l.addi r28,r28,8
    3570:	84 61 00 64 	l.lwz r3,100(r1)
    3574:	84 a1 00 2c 	l.lwz r5,44(r1)
    3578:	e5 83 28 00 	l.sflts r3,r5
    357c:	10 00 00 07 	l.bf 3598 <_vfprintf_r+0xf24>
    3580:	84 e1 00 50 	l.lwz r7,80(r1)
    3584:	a4 7e 00 01 	l.andi r3,r30,0x1
    3588:	bc 03 00 00 	l.sfeqi r3,0
    358c:	13 ff ff 4b 	l.bf 32b8 <_vfprintf_r+0xc44>
    3590:	a4 7e 00 04 	l.andi r3,r30,0x4
    3594:	84 e1 00 50 	l.lwz r7,80(r1)
    3598:	84 61 00 80 	l.lwz r3,128(r1)
    359c:	e0 42 38 00 	l.add r2,r2,r7
    35a0:	9c 63 00 01 	l.addi r3,r3,1
    35a4:	84 81 00 44 	l.lwz r4,68(r1)
    35a8:	d4 1c 38 04 	l.sw 4(r28),r7
    35ac:	d4 1c 20 00 	l.sw 0(r28),r4
    35b0:	d4 01 10 84 	l.sw 132(r1),r2
    35b4:	bd 43 00 07 	l.sfgtsi r3,7
    35b8:	10 00 02 fc 	l.bf 41a8 <_vfprintf_r+0x1b34>
    35bc:	d4 01 18 80 	l.sw 128(r1),r3
    35c0:	9f 9c 00 08 	l.addi r28,r28,8
    35c4:	84 a1 00 2c 	l.lwz r5,44(r1)
    35c8:	9e 45 ff ff 	l.addi r18,r5,-1
    35cc:	bd b2 00 00 	l.sflesi r18,0
    35d0:	13 ff ff 39 	l.bf 32b4 <_vfprintf_r+0xc40>
    35d4:	84 61 00 80 	l.lwz r3,128(r1)
    35d8:	19 c0 00 01 	l.movhi r14,0x1
    35dc:	bd 52 00 10 	l.sfgtsi r18,16
    35e0:	a9 ce 16 2c 	l.ori r14,r14,0x162c
    35e4:	9f 00 00 10 	l.addi r24,r0,16
    35e8:	10 00 00 09 	l.bf 360c <_vfprintf_r+0xf98>
    35ec:	a8 a3 00 00 	l.ori r5,r3,0x0
    35f0:	00 00 01 22 	l.j 3a78 <_vfprintf_r+0x1404>
    35f4:	9c 63 00 01 	l.addi r3,r3,1
    35f8:	9f 9c 00 08 	l.addi r28,r28,8
    35fc:	9e 52 ff f0 	l.addi r18,r18,-16
    3600:	bd 52 00 10 	l.sfgtsi r18,16
    3604:	0c 00 01 1c 	l.bnf 3a74 <_vfprintf_r+0x1400>
    3608:	a8 65 00 00 	l.ori r3,r5,0x0
    360c:	9c a5 00 01 	l.addi r5,r5,1
    3610:	9c 42 00 10 	l.addi r2,r2,16
    3614:	d4 1c 70 00 	l.sw 0(r28),r14
    3618:	d4 1c c0 04 	l.sw 4(r28),r24
    361c:	d4 01 10 84 	l.sw 132(r1),r2
    3620:	bd 45 00 07 	l.sfgtsi r5,7
    3624:	0f ff ff f5 	l.bnf 35f8 <_vfprintf_r+0xf84>
    3628:	d4 01 28 80 	l.sw 128(r1),r5
    362c:	a8 74 00 00 	l.ori r3,r20,0x0
    3630:	a8 9a 00 00 	l.ori r4,r26,0x0
    3634:	04 00 1b e8 	l.jal a5d4 <__sprint_r>
    3638:	9c a1 00 7c 	l.addi r5,r1,124
    363c:	bc 2b 00 00 	l.sfnei r11,0
    3640:	13 ff fc dc 	l.bf 29b0 <_vfprintf_r+0x33c>
    3644:	84 41 00 84 	l.lwz r2,132(r1)
    3648:	84 a1 00 80 	l.lwz r5,128(r1)
    364c:	03 ff ff ec 	l.j 35fc <_vfprintf_r+0xf88>
    3650:	ab 96 00 00 	l.ori r28,r22,0x0
    3654:	bc 04 00 01 	l.sfeqi r4,1
    3658:	10 00 00 cf 	l.bf 3994 <_vfprintf_r+0x1320>
    365c:	bc 04 00 02 	l.sfeqi r4,2
    3660:	d4 01 b0 38 	l.sw 56(r1),r22
    3664:	0c 00 00 0f 	l.bnf 36a0 <_vfprintf_r+0x102c>
    3668:	a8 96 00 00 	l.ori r4,r22,0x0
    366c:	84 a1 00 58 	l.lwz r5,88(r1)
    3670:	a4 62 00 0f 	l.andi r3,r2,0xf
    3674:	b8 42 00 44 	l.srli r2,r2,0x4
    3678:	e0 65 18 00 	l.add r3,r5,r3
    367c:	9c 84 ff ff 	l.addi r4,r4,-1
    3680:	8c 63 00 00 	l.lbz r3,0(r3)
    3684:	bc 22 00 00 	l.sfnei r2,0
    3688:	13 ff ff fa 	l.bf 3670 <_vfprintf_r+0xffc>
    368c:	d8 04 18 00 	l.sb 0(r4),r3
    3690:	d4 01 20 38 	l.sw 56(r1),r4
    3694:	e0 56 20 02 	l.sub r2,r22,r4
    3698:	03 ff fd 62 	l.j 2c20 <_vfprintf_r+0x5ac>
    369c:	d4 01 10 20 	l.sw 32(r1),r2
    36a0:	a4 62 00 07 	l.andi r3,r2,0x7
    36a4:	b8 42 00 43 	l.srli r2,r2,0x3
    36a8:	9c 84 ff ff 	l.addi r4,r4,-1
    36ac:	9c 63 00 30 	l.addi r3,r3,48
    36b0:	bc 22 00 00 	l.sfnei r2,0
    36b4:	13 ff ff fb 	l.bf 36a0 <_vfprintf_r+0x102c>
    36b8:	d8 04 18 00 	l.sb 0(r4),r3
    36bc:	a4 5e 00 01 	l.andi r2,r30,0x1
    36c0:	bc 22 00 00 	l.sfnei r2,0
    36c4:	0f ff ff f4 	l.bnf 3694 <_vfprintf_r+0x1020>
    36c8:	d4 01 20 38 	l.sw 56(r1),r4
    36cc:	bc 23 00 30 	l.sfnei r3,48
    36d0:	0c 00 02 e9 	l.bnf 4274 <_vfprintf_r+0x1c00>
    36d4:	84 61 00 38 	l.lwz r3,56(r1)
    36d8:	9c a0 00 30 	l.addi r5,r0,48
    36dc:	9c 63 ff ff 	l.addi r3,r3,-1
    36e0:	db e4 2f ff 	l.sb -1(r4),r5
    36e4:	e0 56 18 02 	l.sub r2,r22,r3
    36e8:	d4 01 18 38 	l.sw 56(r1),r3
    36ec:	03 ff fd 4d 	l.j 2c20 <_vfprintf_r+0x5ac>
    36f0:	d4 01 10 20 	l.sw 32(r1),r2
    36f4:	84 81 00 1c 	l.lwz r4,28(r1)
    36f8:	e2 43 20 02 	l.sub r18,r3,r4
    36fc:	bd b2 00 00 	l.sflesi r18,0
    3700:	13 ff fe ac 	l.bf 31b0 <_vfprintf_r+0xb3c>
    3704:	19 c0 00 01 	l.movhi r14,0x1
    3708:	84 61 00 80 	l.lwz r3,128(r1)
    370c:	bd 52 00 10 	l.sfgtsi r18,16
    3710:	a9 ce 16 2c 	l.ori r14,r14,0x162c
    3714:	9f 00 00 10 	l.addi r24,r0,16
    3718:	10 00 00 08 	l.bf 3738 <_vfprintf_r+0x10c4>
    371c:	a8 a3 00 00 	l.ori r5,r3,0x0
    3720:	00 00 00 1c 	l.j 3790 <_vfprintf_r+0x111c>
    3724:	9c 63 00 01 	l.addi r3,r3,1
    3728:	9e 52 ff f0 	l.addi r18,r18,-16
    372c:	bd 52 00 10 	l.sfgtsi r18,16
    3730:	0c 00 00 16 	l.bnf 3788 <_vfprintf_r+0x1114>
    3734:	9f 9c 00 08 	l.addi r28,r28,8
    3738:	9c a5 00 01 	l.addi r5,r5,1
    373c:	9c 42 00 10 	l.addi r2,r2,16
    3740:	d4 1c 70 00 	l.sw 0(r28),r14
    3744:	d4 1c c0 04 	l.sw 4(r28),r24
    3748:	d4 01 10 84 	l.sw 132(r1),r2
    374c:	bd 45 00 07 	l.sfgtsi r5,7
    3750:	0f ff ff f6 	l.bnf 3728 <_vfprintf_r+0x10b4>
    3754:	d4 01 28 80 	l.sw 128(r1),r5
    3758:	a8 74 00 00 	l.ori r3,r20,0x0
    375c:	a8 9a 00 00 	l.ori r4,r26,0x0
    3760:	04 00 1b 9d 	l.jal a5d4 <__sprint_r>
    3764:	9c a1 00 7c 	l.addi r5,r1,124
    3768:	bc 2b 00 00 	l.sfnei r11,0
    376c:	13 ff fc 91 	l.bf 29b0 <_vfprintf_r+0x33c>
    3770:	9e 52 ff f0 	l.addi r18,r18,-16
    3774:	84 41 00 84 	l.lwz r2,132(r1)
    3778:	bd 52 00 10 	l.sfgtsi r18,16
    377c:	84 a1 00 80 	l.lwz r5,128(r1)
    3780:	13 ff ff ee 	l.bf 3738 <_vfprintf_r+0x10c4>
    3784:	ab 96 00 00 	l.ori r28,r22,0x0
    3788:	a8 65 00 00 	l.ori r3,r5,0x0
    378c:	9c 63 00 01 	l.addi r3,r3,1
    3790:	e0 42 90 00 	l.add r2,r2,r18
    3794:	d4 1c 70 00 	l.sw 0(r28),r14
    3798:	d4 1c 90 04 	l.sw 4(r28),r18
    379c:	d4 01 10 84 	l.sw 132(r1),r2
    37a0:	bd 43 00 07 	l.sfgtsi r3,7
    37a4:	10 00 01 43 	l.bf 3cb0 <_vfprintf_r+0x163c>
    37a8:	d4 01 18 80 	l.sw 128(r1),r3
    37ac:	03 ff fe 81 	l.j 31b0 <_vfprintf_r+0xb3c>
    37b0:	9f 9c 00 08 	l.addi r28,r28,8
    37b4:	9e 52 00 01 	l.addi r18,r18,1
    37b8:	e0 42 c0 00 	l.add r2,r2,r24
    37bc:	d4 1c 70 00 	l.sw 0(r28),r14
    37c0:	d4 1c c0 04 	l.sw 4(r28),r24
    37c4:	d4 01 10 84 	l.sw 132(r1),r2
    37c8:	bd 52 00 07 	l.sfgtsi r18,7
    37cc:	0f ff ff 36 	l.bnf 34a4 <_vfprintf_r+0xe30>
    37d0:	d4 01 90 80 	l.sw 128(r1),r18
    37d4:	a8 74 00 00 	l.ori r3,r20,0x0
    37d8:	a8 9a 00 00 	l.ori r4,r26,0x0
    37dc:	04 00 1b 7e 	l.jal a5d4 <__sprint_r>
    37e0:	9c a1 00 7c 	l.addi r5,r1,124
    37e4:	bc 2b 00 00 	l.sfnei r11,0
    37e8:	13 ff fc 72 	l.bf 29b0 <_vfprintf_r+0x33c>
    37ec:	84 41 00 84 	l.lwz r2,132(r1)
    37f0:	86 41 00 80 	l.lwz r18,128(r1)
    37f4:	03 ff ff 2d 	l.j 34a8 <_vfprintf_r+0xe34>
    37f8:	ab 96 00 00 	l.ori r28,r22,0x0
    37fc:	a8 74 00 00 	l.ori r3,r20,0x0
    3800:	a8 9a 00 00 	l.ori r4,r26,0x0
    3804:	04 00 1b 74 	l.jal a5d4 <__sprint_r>
    3808:	9c a1 00 7c 	l.addi r5,r1,124
    380c:	bc 2b 00 00 	l.sfnei r11,0
    3810:	0f ff fe ee 	l.bnf 33c8 <_vfprintf_r+0xd54>
    3814:	9c 60 00 00 	l.addi r3,r0,0
    3818:	03 ff fc 67 	l.j 29b4 <_vfprintf_r+0x340>
    381c:	94 5a 00 0c 	l.lhz r2,12(r26)
    3820:	d4 01 18 20 	l.sw 32(r1),r3
    3824:	03 ff fc ff 	l.j 2c20 <_vfprintf_r+0x5ac>
    3828:	d4 01 b0 38 	l.sw 56(r1),r22
    382c:	a8 74 00 00 	l.ori r3,r20,0x0
    3830:	a8 9a 00 00 	l.ori r4,r26,0x0
    3834:	04 00 1b 68 	l.jal a5d4 <__sprint_r>
    3838:	9c a1 00 7c 	l.addi r5,r1,124
    383c:	bc 2b 00 00 	l.sfnei r11,0
    3840:	13 ff fc 5c 	l.bf 29b0 <_vfprintf_r+0x33c>
    3844:	84 41 00 84 	l.lwz r2,132(r1)
    3848:	03 ff fe 8a 	l.j 3270 <_vfprintf_r+0xbfc>
    384c:	ab 96 00 00 	l.ori r28,r22,0x0
    3850:	a8 74 00 00 	l.ori r3,r20,0x0
    3854:	a8 9a 00 00 	l.ori r4,r26,0x0
    3858:	04 00 1b 5f 	l.jal a5d4 <__sprint_r>
    385c:	9c a1 00 7c 	l.addi r5,r1,124
    3860:	bc 2b 00 00 	l.sfnei r11,0
    3864:	13 ff fc 53 	l.bf 29b0 <_vfprintf_r+0x33c>
    3868:	84 41 00 84 	l.lwz r2,132(r1)
    386c:	03 ff fe 3e 	l.j 3164 <_vfprintf_r+0xaf0>
    3870:	ab 96 00 00 	l.ori r28,r22,0x0
    3874:	a8 74 00 00 	l.ori r3,r20,0x0
    3878:	a8 9a 00 00 	l.ori r4,r26,0x0
    387c:	04 00 1b 56 	l.jal a5d4 <__sprint_r>
    3880:	9c a1 00 7c 	l.addi r5,r1,124
    3884:	bc 2b 00 00 	l.sfnei r11,0
    3888:	13 ff fc 4a 	l.bf 29b0 <_vfprintf_r+0x33c>
    388c:	84 41 00 84 	l.lwz r2,132(r1)
    3890:	03 ff fe 45 	l.j 31a4 <_vfprintf_r+0xb30>
    3894:	ab 96 00 00 	l.ori r28,r22,0x0
    3898:	bd 52 00 00 	l.sfgtsi r18,0
    389c:	0c 00 01 bc 	l.bnf 3f8c <_vfprintf_r+0x1918>
    38a0:	84 a1 00 2c 	l.lwz r5,44(r1)
    38a4:	84 61 00 38 	l.lwz r3,56(r1)
    38a8:	84 e1 00 40 	l.lwz r7,64(r1)
    38ac:	e0 63 28 00 	l.add r3,r3,r5
    38b0:	e5 a5 38 00 	l.sfles r5,r7
    38b4:	d4 01 18 14 	l.sw 20(r1),r3
    38b8:	10 00 00 03 	l.bf 38c4 <_vfprintf_r+0x1250>
    38bc:	a9 c5 00 00 	l.ori r14,r5,0x0
    38c0:	a9 c7 00 00 	l.ori r14,r7,0x0
    38c4:	bd ae 00 00 	l.sflesi r14,0
    38c8:	10 00 00 0c 	l.bf 38f8 <_vfprintf_r+0x1284>
    38cc:	84 61 00 80 	l.lwz r3,128(r1)
    38d0:	e0 42 70 00 	l.add r2,r2,r14
    38d4:	9c 63 00 01 	l.addi r3,r3,1
    38d8:	84 81 00 38 	l.lwz r4,56(r1)
    38dc:	d4 1c 70 04 	l.sw 4(r28),r14
    38e0:	d4 1c 20 00 	l.sw 0(r28),r4
    38e4:	d4 01 10 84 	l.sw 132(r1),r2
    38e8:	bd 43 00 07 	l.sfgtsi r3,7
    38ec:	10 00 02 59 	l.bf 4250 <_vfprintf_r+0x1bdc>
    38f0:	d4 01 18 80 	l.sw 128(r1),r3
    38f4:	9f 9c 00 08 	l.addi r28,r28,8
    38f8:	ae 4e ff ff 	l.xori r18,r14,-1
    38fc:	84 a1 00 40 	l.lwz r5,64(r1)
    3900:	ba 52 00 9f 	l.srai r18,r18,0x1f
    3904:	e1 ce 90 03 	l.and r14,r14,r18
    3908:	e2 45 70 02 	l.sub r18,r5,r14
    390c:	bd b2 00 00 	l.sflesi r18,0
    3910:	10 00 00 6b 	l.bf 3abc <_vfprintf_r+0x1448>
    3914:	84 61 00 80 	l.lwz r3,128(r1)
    3918:	19 c0 00 01 	l.movhi r14,0x1
    391c:	bd 52 00 10 	l.sfgtsi r18,16
    3920:	a9 ce 16 2c 	l.ori r14,r14,0x162c
    3924:	9f 00 00 10 	l.addi r24,r0,16
    3928:	10 00 00 09 	l.bf 394c <_vfprintf_r+0x12d8>
    392c:	a8 a3 00 00 	l.ori r5,r3,0x0
    3930:	00 00 01 81 	l.j 3f34 <_vfprintf_r+0x18c0>
    3934:	9c 63 00 01 	l.addi r3,r3,1
    3938:	9f 9c 00 08 	l.addi r28,r28,8
    393c:	9e 52 ff f0 	l.addi r18,r18,-16
    3940:	bd 52 00 10 	l.sfgtsi r18,16
    3944:	0c 00 01 7b 	l.bnf 3f30 <_vfprintf_r+0x18bc>
    3948:	a8 65 00 00 	l.ori r3,r5,0x0
    394c:	9c a5 00 01 	l.addi r5,r5,1
    3950:	9c 42 00 10 	l.addi r2,r2,16
    3954:	d4 1c 70 00 	l.sw 0(r28),r14
    3958:	d4 1c c0 04 	l.sw 4(r28),r24
    395c:	d4 01 10 84 	l.sw 132(r1),r2
    3960:	bd 45 00 07 	l.sfgtsi r5,7
    3964:	0f ff ff f5 	l.bnf 3938 <_vfprintf_r+0x12c4>
    3968:	d4 01 28 80 	l.sw 128(r1),r5
    396c:	a8 74 00 00 	l.ori r3,r20,0x0
    3970:	a8 9a 00 00 	l.ori r4,r26,0x0
    3974:	04 00 1b 18 	l.jal a5d4 <__sprint_r>
    3978:	9c a1 00 7c 	l.addi r5,r1,124
    397c:	bc 2b 00 00 	l.sfnei r11,0
    3980:	13 ff fc 0c 	l.bf 29b0 <_vfprintf_r+0x33c>
    3984:	84 41 00 84 	l.lwz r2,132(r1)
    3988:	84 a1 00 80 	l.lwz r5,128(r1)
    398c:	03 ff ff ec 	l.j 393c <_vfprintf_r+0x12c8>
    3990:	ab 96 00 00 	l.ori r28,r22,0x0
    3994:	bc 42 00 09 	l.sfgtui r2,9
    3998:	10 00 00 b6 	l.bf 3c70 <_vfprintf_r+0x15fc>
    399c:	a9 d6 00 00 	l.ori r14,r22,0x0
    39a0:	9c 42 00 30 	l.addi r2,r2,48
    39a4:	84 61 00 5c 	l.lwz r3,92(r1)
    39a8:	9c 81 00 af 	l.addi r4,r1,175
    39ac:	d4 01 18 20 	l.sw 32(r1),r3
    39b0:	d8 01 10 af 	l.sb 175(r1),r2
    39b4:	03 ff fc 9b 	l.j 2c20 <_vfprintf_r+0x5ac>
    39b8:	d4 01 20 38 	l.sw 56(r1),r4
    39bc:	d4 01 20 20 	l.sw 32(r1),r4
    39c0:	03 ff fc 98 	l.j 2c20 <_vfprintf_r+0x5ac>
    39c4:	d4 01 b0 38 	l.sw 56(r1),r22
    39c8:	a8 74 00 00 	l.ori r3,r20,0x0
    39cc:	a8 9a 00 00 	l.ori r4,r26,0x0
    39d0:	04 00 1b 01 	l.jal a5d4 <__sprint_r>
    39d4:	9c a1 00 7c 	l.addi r5,r1,124
    39d8:	bc 2b 00 00 	l.sfnei r11,0
    39dc:	13 ff fb f5 	l.bf 29b0 <_vfprintf_r+0x33c>
    39e0:	92 41 00 61 	l.lbs r18,97(r1)
    39e4:	84 41 00 84 	l.lwz r2,132(r1)
    39e8:	03 ff fd d0 	l.j 3128 <_vfprintf_r+0xab4>
    39ec:	ab 96 00 00 	l.ori r28,r22,0x0
    39f0:	9f 07 ff ff 	l.addi r24,r7,-1
    39f4:	bd b8 00 00 	l.sflesi r24,0
    39f8:	13 ff fe ac 	l.bf 34a8 <_vfprintf_r+0xe34>
    39fc:	19 c0 00 01 	l.movhi r14,0x1
    3a00:	bd b8 00 10 	l.sflesi r24,16
    3a04:	0c 00 00 09 	l.bnf 3a28 <_vfprintf_r+0x13b4>
    3a08:	a9 ce 16 2c 	l.ori r14,r14,0x162c
    3a0c:	03 ff ff 6b 	l.j 37b8 <_vfprintf_r+0x1144>
    3a10:	9e 52 00 01 	l.addi r18,r18,1
    3a14:	9f 9c 00 08 	l.addi r28,r28,8
    3a18:	9f 18 ff f0 	l.addi r24,r24,-16
    3a1c:	bd 58 00 10 	l.sfgtsi r24,16
    3a20:	0f ff ff 65 	l.bnf 37b4 <_vfprintf_r+0x1140>
    3a24:	15 00 00 00 	l.nop 0x0
    3a28:	9e 52 00 01 	l.addi r18,r18,1
    3a2c:	9c 42 00 10 	l.addi r2,r2,16
    3a30:	9c 60 00 10 	l.addi r3,r0,16
    3a34:	d4 1c 70 00 	l.sw 0(r28),r14
    3a38:	d4 1c 18 04 	l.sw 4(r28),r3
    3a3c:	d4 01 10 84 	l.sw 132(r1),r2
    3a40:	bd 52 00 07 	l.sfgtsi r18,7
    3a44:	0f ff ff f4 	l.bnf 3a14 <_vfprintf_r+0x13a0>
    3a48:	d4 01 90 80 	l.sw 128(r1),r18
    3a4c:	a8 74 00 00 	l.ori r3,r20,0x0
    3a50:	a8 9a 00 00 	l.ori r4,r26,0x0
    3a54:	04 00 1a e0 	l.jal a5d4 <__sprint_r>
    3a58:	9c a1 00 7c 	l.addi r5,r1,124
    3a5c:	bc 2b 00 00 	l.sfnei r11,0
    3a60:	13 ff fb d4 	l.bf 29b0 <_vfprintf_r+0x33c>
    3a64:	84 41 00 84 	l.lwz r2,132(r1)
    3a68:	86 41 00 80 	l.lwz r18,128(r1)
    3a6c:	03 ff ff eb 	l.j 3a18 <_vfprintf_r+0x13a4>
    3a70:	ab 96 00 00 	l.ori r28,r22,0x0
    3a74:	9c 63 00 01 	l.addi r3,r3,1
    3a78:	e0 42 90 00 	l.add r2,r2,r18
    3a7c:	d4 1c 70 00 	l.sw 0(r28),r14
    3a80:	d4 1c 90 04 	l.sw 4(r28),r18
    3a84:	d4 01 10 84 	l.sw 132(r1),r2
    3a88:	bd 43 00 07 	l.sfgtsi r3,7
    3a8c:	0f ff fe 09 	l.bnf 32b0 <_vfprintf_r+0xc3c>
    3a90:	d4 01 18 80 	l.sw 128(r1),r3
    3a94:	03 ff fe 90 	l.j 34d4 <_vfprintf_r+0xe60>
    3a98:	a8 74 00 00 	l.ori r3,r20,0x0
    3a9c:	a8 74 00 00 	l.ori r3,r20,0x0
    3aa0:	a8 9a 00 00 	l.ori r4,r26,0x0
    3aa4:	04 00 1a cc 	l.jal a5d4 <__sprint_r>
    3aa8:	9c a1 00 7c 	l.addi r5,r1,124
    3aac:	bc 2b 00 00 	l.sfnei r11,0
    3ab0:	13 ff fb c0 	l.bf 29b0 <_vfprintf_r+0x33c>
    3ab4:	84 41 00 84 	l.lwz r2,132(r1)
    3ab8:	ab 96 00 00 	l.ori r28,r22,0x0
    3abc:	86 41 00 64 	l.lwz r18,100(r1)
    3ac0:	84 81 00 2c 	l.lwz r4,44(r1)
    3ac4:	84 e1 00 38 	l.lwz r7,56(r1)
    3ac8:	84 61 00 40 	l.lwz r3,64(r1)
    3acc:	e5 92 20 00 	l.sflts r18,r4
    3ad0:	10 00 00 40 	l.bf 3bd0 <_vfprintf_r+0x155c>
    3ad4:	e3 07 18 00 	l.add r24,r7,r3
    3ad8:	a4 7e 00 01 	l.andi r3,r30,0x1
    3adc:	bc 03 00 00 	l.sfeqi r3,0
    3ae0:	0c 00 00 3c 	l.bnf 3bd0 <_vfprintf_r+0x155c>
    3ae4:	15 00 00 00 	l.nop 0x0
    3ae8:	84 61 00 2c 	l.lwz r3,44(r1)
    3aec:	84 81 00 14 	l.lwz r4,20(r1)
    3af0:	e2 43 90 02 	l.sub r18,r3,r18
    3af4:	e0 64 c0 02 	l.sub r3,r4,r24
    3af8:	e5 b2 18 00 	l.sfles r18,r3
    3afc:	10 00 00 03 	l.bf 3b08 <_vfprintf_r+0x1494>
    3b00:	a9 d2 00 00 	l.ori r14,r18,0x0
    3b04:	a9 c3 00 00 	l.ori r14,r3,0x0
    3b08:	bd ae 00 00 	l.sflesi r14,0
    3b0c:	10 00 00 0b 	l.bf 3b38 <_vfprintf_r+0x14c4>
    3b10:	84 61 00 80 	l.lwz r3,128(r1)
    3b14:	e0 42 70 00 	l.add r2,r2,r14
    3b18:	9c 63 00 01 	l.addi r3,r3,1
    3b1c:	d4 1c c0 00 	l.sw 0(r28),r24
    3b20:	d4 1c 70 04 	l.sw 4(r28),r14
    3b24:	d4 01 10 84 	l.sw 132(r1),r2
    3b28:	bd 43 00 07 	l.sfgtsi r3,7
    3b2c:	10 00 01 ea 	l.bf 42d4 <_vfprintf_r+0x1c60>
    3b30:	d4 01 18 80 	l.sw 128(r1),r3
    3b34:	9f 9c 00 08 	l.addi r28,r28,8
    3b38:	ac 6e ff ff 	l.xori r3,r14,-1
    3b3c:	b8 63 00 9f 	l.srai r3,r3,0x1f
    3b40:	e1 ce 18 03 	l.and r14,r14,r3
    3b44:	e2 52 70 02 	l.sub r18,r18,r14
    3b48:	bd b2 00 00 	l.sflesi r18,0
    3b4c:	13 ff fd da 	l.bf 32b4 <_vfprintf_r+0xc40>
    3b50:	84 61 00 80 	l.lwz r3,128(r1)
    3b54:	19 c0 00 01 	l.movhi r14,0x1
    3b58:	bd 52 00 10 	l.sfgtsi r18,16
    3b5c:	a9 ce 16 2c 	l.ori r14,r14,0x162c
    3b60:	9f 00 00 10 	l.addi r24,r0,16
    3b64:	10 00 00 09 	l.bf 3b88 <_vfprintf_r+0x1514>
    3b68:	a8 a3 00 00 	l.ori r5,r3,0x0
    3b6c:	03 ff ff c3 	l.j 3a78 <_vfprintf_r+0x1404>
    3b70:	9c 63 00 01 	l.addi r3,r3,1
    3b74:	9f 9c 00 08 	l.addi r28,r28,8
    3b78:	9e 52 ff f0 	l.addi r18,r18,-16
    3b7c:	bd 52 00 10 	l.sfgtsi r18,16
    3b80:	0f ff ff bd 	l.bnf 3a74 <_vfprintf_r+0x1400>
    3b84:	a8 65 00 00 	l.ori r3,r5,0x0
    3b88:	9c a5 00 01 	l.addi r5,r5,1
    3b8c:	9c 42 00 10 	l.addi r2,r2,16
    3b90:	d4 1c 70 00 	l.sw 0(r28),r14
    3b94:	d4 1c c0 04 	l.sw 4(r28),r24
    3b98:	d4 01 10 84 	l.sw 132(r1),r2
    3b9c:	bd 45 00 07 	l.sfgtsi r5,7
    3ba0:	0f ff ff f5 	l.bnf 3b74 <_vfprintf_r+0x1500>
    3ba4:	d4 01 28 80 	l.sw 128(r1),r5
    3ba8:	a8 74 00 00 	l.ori r3,r20,0x0
    3bac:	a8 9a 00 00 	l.ori r4,r26,0x0
    3bb0:	04 00 1a 89 	l.jal a5d4 <__sprint_r>
    3bb4:	9c a1 00 7c 	l.addi r5,r1,124
    3bb8:	bc 2b 00 00 	l.sfnei r11,0
    3bbc:	13 ff fb 7d 	l.bf 29b0 <_vfprintf_r+0x33c>
    3bc0:	84 41 00 84 	l.lwz r2,132(r1)
    3bc4:	84 a1 00 80 	l.lwz r5,128(r1)
    3bc8:	03 ff ff ec 	l.j 3b78 <_vfprintf_r+0x1504>
    3bcc:	ab 96 00 00 	l.ori r28,r22,0x0
    3bd0:	84 a1 00 50 	l.lwz r5,80(r1)
    3bd4:	84 61 00 80 	l.lwz r3,128(r1)
    3bd8:	e0 42 28 00 	l.add r2,r2,r5
    3bdc:	9c 63 00 01 	l.addi r3,r3,1
    3be0:	84 e1 00 44 	l.lwz r7,68(r1)
    3be4:	d4 1c 28 04 	l.sw 4(r28),r5
    3be8:	d4 1c 38 00 	l.sw 0(r28),r7
    3bec:	d4 01 10 84 	l.sw 132(r1),r2
    3bf0:	bd 43 00 07 	l.sfgtsi r3,7
    3bf4:	10 00 01 ae 	l.bf 42ac <_vfprintf_r+0x1c38>
    3bf8:	d4 01 18 80 	l.sw 128(r1),r3
    3bfc:	03 ff ff bb 	l.j 3ae8 <_vfprintf_r+0x1474>
    3c00:	9f 9c 00 08 	l.addi r28,r28,8
    3c04:	a4 7e 00 01 	l.andi r3,r30,0x1
    3c08:	bc 03 00 00 	l.sfeqi r3,0
    3c0c:	0f ff fd f7 	l.bnf 33e8 <_vfprintf_r+0xd74>
    3c10:	84 81 00 38 	l.lwz r4,56(r1)
    3c14:	9c 60 00 01 	l.addi r3,r0,1
    3c18:	03 ff fe 1e 	l.j 3490 <_vfprintf_r+0xe1c>
    3c1c:	d4 1c 20 00 	l.sw 0(r28),r4
    3c20:	a8 74 00 00 	l.ori r3,r20,0x0
    3c24:	a8 9a 00 00 	l.ori r4,r26,0x0
    3c28:	04 00 1a 6b 	l.jal a5d4 <__sprint_r>
    3c2c:	9c a1 00 7c 	l.addi r5,r1,124
    3c30:	bc 2b 00 00 	l.sfnei r11,0
    3c34:	13 ff fb 5f 	l.bf 29b0 <_vfprintf_r+0x33c>
    3c38:	84 41 00 84 	l.lwz r2,132(r1)
    3c3c:	86 41 00 80 	l.lwz r18,128(r1)
    3c40:	03 ff fd f3 	l.j 340c <_vfprintf_r+0xd98>
    3c44:	ab 96 00 00 	l.ori r28,r22,0x0
    3c48:	a8 74 00 00 	l.ori r3,r20,0x0
    3c4c:	a8 9a 00 00 	l.ori r4,r26,0x0
    3c50:	04 00 1a 61 	l.jal a5d4 <__sprint_r>
    3c54:	9c a1 00 7c 	l.addi r5,r1,124
    3c58:	bc 2b 00 00 	l.sfnei r11,0
    3c5c:	13 ff fb 55 	l.bf 29b0 <_vfprintf_r+0x33c>
    3c60:	84 41 00 84 	l.lwz r2,132(r1)
    3c64:	86 41 00 80 	l.lwz r18,128(r1)
    3c68:	03 ff fd f4 	l.j 3438 <_vfprintf_r+0xdc4>
    3c6c:	ab 96 00 00 	l.ori r28,r22,0x0
    3c70:	a8 62 00 00 	l.ori r3,r2,0x0
    3c74:	9c 80 00 0a 	l.addi r4,r0,10
    3c78:	04 00 29 1e 	l.jal e0f0 <__umodsi3>
    3c7c:	9d ce ff ff 	l.addi r14,r14,-1
    3c80:	9d 6b 00 30 	l.addi r11,r11,48
    3c84:	a8 62 00 00 	l.ori r3,r2,0x0
    3c88:	9c 80 00 0a 	l.addi r4,r0,10
    3c8c:	04 00 28 c1 	l.jal df90 <__udivsi3>
    3c90:	d8 0e 58 00 	l.sb 0(r14),r11
    3c94:	bc 2b 00 00 	l.sfnei r11,0
    3c98:	13 ff ff f6 	l.bf 3c70 <_vfprintf_r+0x15fc>
    3c9c:	a8 4b 00 00 	l.ori r2,r11,0x0
    3ca0:	e0 56 70 02 	l.sub r2,r22,r14
    3ca4:	d4 01 70 38 	l.sw 56(r1),r14
    3ca8:	03 ff fb de 	l.j 2c20 <_vfprintf_r+0x5ac>
    3cac:	d4 01 10 20 	l.sw 32(r1),r2
    3cb0:	a8 74 00 00 	l.ori r3,r20,0x0
    3cb4:	a8 9a 00 00 	l.ori r4,r26,0x0
    3cb8:	04 00 1a 47 	l.jal a5d4 <__sprint_r>
    3cbc:	9c a1 00 7c 	l.addi r5,r1,124
    3cc0:	bc 2b 00 00 	l.sfnei r11,0
    3cc4:	13 ff fb 3b 	l.bf 29b0 <_vfprintf_r+0x33c>
    3cc8:	84 41 00 84 	l.lwz r2,132(r1)
    3ccc:	03 ff fd 39 	l.j 31b0 <_vfprintf_r+0xb3c>
    3cd0:	ab 96 00 00 	l.ori r28,r22,0x0
    3cd4:	e0 40 10 02 	l.sub r2,r0,r2
    3cd8:	d8 01 38 61 	l.sb 97(r1),r7
    3cdc:	9e 40 00 2d 	l.addi r18,r0,45
    3ce0:	03 ff fb b6 	l.j 2bb8 <_vfprintf_r+0x544>
    3ce4:	9c 80 00 01 	l.addi r4,r0,1
    3ce8:	a8 64 00 00 	l.ori r3,r4,0x0
    3cec:	e0 83 00 04 	l.or r4,r3,r0
    3cf0:	e0 62 00 04 	l.or r3,r2,r0
    3cf4:	04 00 18 d0 	l.jal a034 <__fpclassifyd>
    3cf8:	15 00 00 00 	l.nop 0x0
    3cfc:	bc 2b 00 00 	l.sfnei r11,0
    3d00:	0c 00 00 e8 	l.bnf 40a0 <_vfprintf_r+0x1a2c>
    3d04:	18 80 00 01 	l.movhi r4,0x1
    3d08:	84 41 00 14 	l.lwz r2,20(r1)
    3d0c:	84 61 00 3c 	l.lwz r3,60(r1)
    3d10:	9c 80 ff df 	l.addi r4,r0,-33
    3d14:	bc 22 ff ff 	l.sfnei r2,-1
    3d18:	0c 00 01 03 	l.bnf 4124 <_vfprintf_r+0x1ab0>
    3d1c:	e2 43 20 03 	l.and r18,r3,r4
    3d20:	ac 52 00 47 	l.xori r2,r18,71
    3d24:	e0 60 10 02 	l.sub r3,r0,r2
    3d28:	e0 43 10 04 	l.or r2,r3,r2
    3d2c:	bd 82 00 00 	l.sfltsi r2,0
    3d30:	10 00 00 ff 	l.bf 412c <_vfprintf_r+0x1ab8>
    3d34:	84 a1 00 14 	l.lwz r5,20(r1)
    3d38:	e0 40 28 02 	l.sub r2,r0,r5
    3d3c:	e0 42 28 04 	l.or r2,r2,r5
    3d40:	bd 62 00 00 	l.sfgesi r2,0
    3d44:	0c 00 00 fa 	l.bnf 412c <_vfprintf_r+0x1ab8>
    3d48:	84 41 00 48 	l.lwz r2,72(r1)
    3d4c:	9e 40 00 47 	l.addi r18,r0,71
    3d50:	bd 82 00 00 	l.sfltsi r2,0
    3d54:	9c 40 00 01 	l.addi r2,r0,1
    3d58:	d4 01 10 14 	l.sw 20(r1),r2
    3d5c:	a8 5e 01 00 	l.ori r2,r30,0x100
    3d60:	10 00 02 1e 	l.bf 45d8 <_vfprintf_r+0x1f64>
    3d64:	d4 01 10 24 	l.sw 36(r1),r2
    3d68:	9c 40 00 00 	l.addi r2,r0,0
    3d6c:	87 01 00 48 	l.lwz r24,72(r1)
    3d70:	d4 01 10 34 	l.sw 52(r1),r2
    3d74:	84 41 00 4c 	l.lwz r2,76(r1)
    3d78:	9c 61 00 68 	l.addi r3,r1,104
    3d7c:	a8 a2 00 00 	l.ori r5,r2,0x0
    3d80:	9c 41 00 74 	l.addi r2,r1,116
    3d84:	d4 01 18 00 	l.sw 0(r1),r3
    3d88:	a8 98 00 00 	l.ori r4,r24,0x0
    3d8c:	d4 01 10 04 	l.sw 4(r1),r2
    3d90:	a8 74 00 00 	l.ori r3,r20,0x0
    3d94:	9c c0 00 02 	l.addi r6,r0,2
    3d98:	84 e1 00 14 	l.lwz r7,20(r1)
    3d9c:	04 00 04 8b 	l.jal 4fc8 <_dtoa_r>
    3da0:	9d 01 00 64 	l.addi r8,r1,100
    3da4:	bc 32 00 47 	l.sfnei r18,71
    3da8:	10 00 02 60 	l.bf 4728 <_vfprintf_r+0x20b4>
    3dac:	d4 01 58 38 	l.sw 56(r1),r11
    3db0:	a4 7e 00 01 	l.andi r3,r30,0x1
    3db4:	84 e1 00 38 	l.lwz r7,56(r1)
    3db8:	84 81 00 14 	l.lwz r4,20(r1)
    3dbc:	bc 23 00 00 	l.sfnei r3,0
    3dc0:	0c 00 02 19 	l.bnf 4624 <_vfprintf_r+0x1fb0>
    3dc4:	e0 47 20 00 	l.add r2,r7,r4
    3dc8:	84 61 00 4c 	l.lwz r3,76(r1)
    3dcc:	18 80 00 01 	l.movhi r4,0x1
    3dd0:	a9 98 00 00 	l.ori r12,r24,0x0
    3dd4:	a8 84 14 c0 	l.ori r4,r4,0x14c0
    3dd8:	a9 a3 00 00 	l.ori r13,r3,0x0
    3ddc:	84 a4 00 00 	l.lwz r5,0(r4)
    3de0:	84 c4 00 04 	l.lwz r6,4(r4)
    3de4:	e0 6c 00 04 	l.or r3,r12,r0
    3de8:	e0 8d 00 04 	l.or r4,r13,r0
    3dec:	04 00 2e b2 	l.jal f8b4 <__eqdf2>
    3df0:	15 00 00 00 	l.nop 0x0
    3df4:	bc 0b 00 00 	l.sfeqi r11,0
    3df8:	10 00 00 0e 	l.bf 3e30 <_vfprintf_r+0x17bc>
    3dfc:	a8 62 00 00 	l.ori r3,r2,0x0
    3e00:	84 61 00 74 	l.lwz r3,116(r1)
    3e04:	e4 a2 18 00 	l.sfleu r2,r3
    3e08:	10 00 00 0b 	l.bf 3e34 <_vfprintf_r+0x17c0>
    3e0c:	84 e1 00 38 	l.lwz r7,56(r1)
    3e10:	9c 83 00 01 	l.addi r4,r3,1
    3e14:	9c a0 00 30 	l.addi r5,r0,48
    3e18:	d4 01 20 74 	l.sw 116(r1),r4
    3e1c:	d8 03 28 00 	l.sb 0(r3),r5
    3e20:	84 61 00 74 	l.lwz r3,116(r1)
    3e24:	e4 42 18 00 	l.sfgtu r2,r3
    3e28:	13 ff ff fc 	l.bf 3e18 <_vfprintf_r+0x17a4>
    3e2c:	9c 83 00 01 	l.addi r4,r3,1
    3e30:	84 e1 00 38 	l.lwz r7,56(r1)
    3e34:	bc 32 00 47 	l.sfnei r18,71
    3e38:	e0 63 38 02 	l.sub r3,r3,r7
    3e3c:	10 00 01 7d 	l.bf 4430 <_vfprintf_r+0x1dbc>
    3e40:	d4 01 18 2c 	l.sw 44(r1),r3
    3e44:	84 41 00 64 	l.lwz r2,100(r1)
    3e48:	84 81 00 14 	l.lwz r4,20(r1)
    3e4c:	e5 84 10 00 	l.sflts r4,r2
    3e50:	10 00 00 03 	l.bf 3e5c <_vfprintf_r+0x17e8>
    3e54:	9c 60 00 01 	l.addi r3,r0,1
    3e58:	9c 60 00 00 	l.addi r3,r0,0
    3e5c:	a4 63 00 ff 	l.andi r3,r3,0xff
    3e60:	bc 23 00 00 	l.sfnei r3,0
    3e64:	10 00 01 88 	l.bf 4484 <_vfprintf_r+0x1e10>
    3e68:	bd 82 ff fd 	l.sfltsi r2,-3
    3e6c:	10 00 00 03 	l.bf 3e78 <_vfprintf_r+0x1804>
    3e70:	9c 80 00 01 	l.addi r4,r0,1
    3e74:	a8 83 00 00 	l.ori r4,r3,0x0
    3e78:	a4 84 00 ff 	l.andi r4,r4,0xff
    3e7c:	bc 04 00 00 	l.sfeqi r4,0
    3e80:	0c 00 01 81 	l.bnf 4484 <_vfprintf_r+0x1e10>
    3e84:	9c 80 00 67 	l.addi r4,r0,103
    3e88:	d4 01 10 40 	l.sw 64(r1),r2
    3e8c:	d4 01 20 3c 	l.sw 60(r1),r4
    3e90:	84 41 00 2c 	l.lwz r2,44(r1)
    3e94:	84 61 00 40 	l.lwz r3,64(r1)
    3e98:	e5 42 18 00 	l.sfgts r2,r3
    3e9c:	10 00 01 d5 	l.bf 45f0 <_vfprintf_r+0x1f7c>
    3ea0:	84 41 00 40 	l.lwz r2,64(r1)
    3ea4:	a4 5e 00 01 	l.andi r2,r30,0x1
    3ea8:	bc 22 00 00 	l.sfnei r2,0
    3eac:	10 00 01 e5 	l.bf 4640 <_vfprintf_r+0x1fcc>
    3eb0:	84 41 00 40 	l.lwz r2,64(r1)
    3eb4:	ac 43 ff ff 	l.xori r2,r3,-1
    3eb8:	d4 01 18 20 	l.sw 32(r1),r3
    3ebc:	b8 42 00 9f 	l.srai r2,r2,0x1f
    3ec0:	e0 43 10 03 	l.and r2,r3,r2
    3ec4:	84 e1 00 34 	l.lwz r7,52(r1)
    3ec8:	bc 27 00 00 	l.sfnei r7,0
    3ecc:	10 00 01 21 	l.bf 4350 <_vfprintf_r+0x1cdc>
    3ed0:	9c 60 00 2d 	l.addi r3,r0,45
    3ed4:	87 c1 00 24 	l.lwz r30,36(r1)
    3ed8:	92 41 00 61 	l.lbs r18,97(r1)
    3edc:	d4 01 10 1c 	l.sw 28(r1),r2
    3ee0:	d4 01 70 24 	l.sw 36(r1),r14
    3ee4:	03 ff fa e3 	l.j 2a70 <_vfprintf_r+0x3fc>
    3ee8:	d4 01 38 14 	l.sw 20(r1),r7
    3eec:	84 81 00 24 	l.lwz r4,36(r1)
    3ef0:	9c 84 00 04 	l.addi r4,r4,4
    3ef4:	d4 01 20 24 	l.sw 36(r1),r4
    3ef8:	03 ff fc 1e 	l.j 2f70 <_vfprintf_r+0x8fc>
    3efc:	84 42 00 00 	l.lwz r2,0(r2)
    3f00:	84 81 00 24 	l.lwz r4,36(r1)
    3f04:	9c 84 00 04 	l.addi r4,r4,4
    3f08:	d4 01 20 24 	l.sw 36(r1),r4
    3f0c:	9c 80 00 01 	l.addi r4,r0,1
    3f10:	03 ff fb 27 	l.j 2bac <_vfprintf_r+0x538>
    3f14:	84 42 00 00 	l.lwz r2,0(r2)
    3f18:	84 81 00 24 	l.lwz r4,36(r1)
    3f1c:	9c 84 00 04 	l.addi r4,r4,4
    3f20:	d4 01 20 24 	l.sw 36(r1),r4
    3f24:	a8 83 00 00 	l.ori r4,r3,0x0
    3f28:	03 ff fb 21 	l.j 2bac <_vfprintf_r+0x538>
    3f2c:	84 42 00 00 	l.lwz r2,0(r2)
    3f30:	9c 63 00 01 	l.addi r3,r3,1
    3f34:	e0 42 90 00 	l.add r2,r2,r18
    3f38:	d4 1c 70 00 	l.sw 0(r28),r14
    3f3c:	d4 1c 90 04 	l.sw 4(r28),r18
    3f40:	d4 01 10 84 	l.sw 132(r1),r2
    3f44:	bd 43 00 07 	l.sfgtsi r3,7
    3f48:	13 ff fe d5 	l.bf 3a9c <_vfprintf_r+0x1428>
    3f4c:	d4 01 18 80 	l.sw 128(r1),r3
    3f50:	03 ff fe db 	l.j 3abc <_vfprintf_r+0x1448>
    3f54:	9f 9c 00 08 	l.addi r28,r28,8
    3f58:	9c a5 00 04 	l.addi r5,r5,4
    3f5c:	d4 01 28 24 	l.sw 36(r1),r5
    3f60:	03 ff fb 95 	l.j 2db4 <_vfprintf_r+0x740>
    3f64:	84 42 00 00 	l.lwz r2,0(r2)
    3f68:	a8 74 00 00 	l.ori r3,r20,0x0
    3f6c:	a8 9a 00 00 	l.ori r4,r26,0x0
    3f70:	04 00 19 99 	l.jal a5d4 <__sprint_r>
    3f74:	9c a1 00 7c 	l.addi r5,r1,124
    3f78:	bc 2b 00 00 	l.sfnei r11,0
    3f7c:	13 ff fa 8d 	l.bf 29b0 <_vfprintf_r+0x33c>
    3f80:	84 41 00 84 	l.lwz r2,132(r1)
    3f84:	03 ff fd 7b 	l.j 3570 <_vfprintf_r+0xefc>
    3f88:	ab 96 00 00 	l.ori r28,r22,0x0
    3f8c:	18 80 00 01 	l.movhi r4,0x1
    3f90:	84 61 00 80 	l.lwz r3,128(r1)
    3f94:	a8 84 14 bb 	l.ori r4,r4,0x14bb
    3f98:	9c 63 00 01 	l.addi r3,r3,1
    3f9c:	9c 42 00 01 	l.addi r2,r2,1
    3fa0:	d4 1c 20 00 	l.sw 0(r28),r4
    3fa4:	9c 80 00 01 	l.addi r4,r0,1
    3fa8:	d4 01 10 84 	l.sw 132(r1),r2
    3fac:	d4 1c 20 04 	l.sw 4(r28),r4
    3fb0:	bd 43 00 07 	l.sfgtsi r3,7
    3fb4:	10 00 00 52 	l.bf 40fc <_vfprintf_r+0x1a88>
    3fb8:	d4 01 18 80 	l.sw 128(r1),r3
    3fbc:	9f 9c 00 08 	l.addi r28,r28,8
    3fc0:	84 e1 00 2c 	l.lwz r7,44(r1)
    3fc4:	e0 72 38 04 	l.or r3,r18,r7
    3fc8:	bc 23 00 00 	l.sfnei r3,0
    3fcc:	10 00 00 07 	l.bf 3fe8 <_vfprintf_r+0x1974>
    3fd0:	84 61 00 50 	l.lwz r3,80(r1)
    3fd4:	a4 7e 00 01 	l.andi r3,r30,0x1
    3fd8:	bc 03 00 00 	l.sfeqi r3,0
    3fdc:	13 ff fc b7 	l.bf 32b8 <_vfprintf_r+0xc44>
    3fe0:	a4 7e 00 04 	l.andi r3,r30,0x4
    3fe4:	84 61 00 50 	l.lwz r3,80(r1)
    3fe8:	84 81 00 44 	l.lwz r4,68(r1)
    3fec:	e0 42 18 00 	l.add r2,r2,r3
    3ff0:	84 61 00 80 	l.lwz r3,128(r1)
    3ff4:	84 a1 00 50 	l.lwz r5,80(r1)
    3ff8:	9c 63 00 01 	l.addi r3,r3,1
    3ffc:	d4 1c 20 00 	l.sw 0(r28),r4
    4000:	d4 1c 28 04 	l.sw 4(r28),r5
    4004:	d4 01 10 84 	l.sw 132(r1),r2
    4008:	bd 43 00 07 	l.sfgtsi r3,7
    400c:	10 00 01 68 	l.bf 45ac <_vfprintf_r+0x1f38>
    4010:	d4 01 18 80 	l.sw 128(r1),r3
    4014:	9f 9c 00 08 	l.addi r28,r28,8
    4018:	e2 40 90 02 	l.sub r18,r0,r18
    401c:	bd b2 00 00 	l.sflesi r18,0
    4020:	10 00 00 74 	l.bf 41f0 <_vfprintf_r+0x1b7c>
    4024:	19 c0 00 01 	l.movhi r14,0x1
    4028:	bd b2 00 10 	l.sflesi r18,16
    402c:	a9 ce 16 2c 	l.ori r14,r14,0x162c
    4030:	9f 00 00 10 	l.addi r24,r0,16
    4034:	0c 00 00 09 	l.bnf 4058 <_vfprintf_r+0x19e4>
    4038:	a8 a3 00 00 	l.ori r5,r3,0x0
    403c:	00 00 00 93 	l.j 4288 <_vfprintf_r+0x1c14>
    4040:	9c 63 00 01 	l.addi r3,r3,1
    4044:	9f 9c 00 08 	l.addi r28,r28,8
    4048:	9e 52 ff f0 	l.addi r18,r18,-16
    404c:	bd 52 00 10 	l.sfgtsi r18,16
    4050:	0c 00 00 8d 	l.bnf 4284 <_vfprintf_r+0x1c10>
    4054:	a8 65 00 00 	l.ori r3,r5,0x0
    4058:	9c a5 00 01 	l.addi r5,r5,1
    405c:	9c 42 00 10 	l.addi r2,r2,16
    4060:	d4 1c 70 00 	l.sw 0(r28),r14
    4064:	d4 1c c0 04 	l.sw 4(r28),r24
    4068:	d4 01 10 84 	l.sw 132(r1),r2
    406c:	bd 45 00 07 	l.sfgtsi r5,7
    4070:	0f ff ff f5 	l.bnf 4044 <_vfprintf_r+0x19d0>
    4074:	d4 01 28 80 	l.sw 128(r1),r5
    4078:	a8 74 00 00 	l.ori r3,r20,0x0
    407c:	a8 9a 00 00 	l.ori r4,r26,0x0
    4080:	04 00 19 55 	l.jal a5d4 <__sprint_r>
    4084:	9c a1 00 7c 	l.addi r5,r1,124
    4088:	bc 2b 00 00 	l.sfnei r11,0
    408c:	13 ff fa 49 	l.bf 29b0 <_vfprintf_r+0x33c>
    4090:	84 41 00 84 	l.lwz r2,132(r1)
    4094:	84 a1 00 80 	l.lwz r5,128(r1)
    4098:	03 ff ff ec 	l.j 4048 <_vfprintf_r+0x19d4>
    409c:	ab 96 00 00 	l.ori r28,r22,0x0
    40a0:	84 61 00 3c 	l.lwz r3,60(r1)
    40a4:	a8 84 14 8e 	l.ori r4,r4,0x148e
    40a8:	bd 43 00 47 	l.sfgtsi r3,71
    40ac:	10 00 00 05 	l.bf 40c0 <_vfprintf_r+0x1a4c>
    40b0:	d4 01 20 38 	l.sw 56(r1),r4
    40b4:	18 a0 00 01 	l.movhi r5,0x1
    40b8:	a8 a5 14 8a 	l.ori r5,r5,0x148a
    40bc:	d4 01 28 38 	l.sw 56(r1),r5
    40c0:	9c 40 00 03 	l.addi r2,r0,3
    40c4:	9c 60 ff 7f 	l.addi r3,r0,-129
    40c8:	d4 01 10 1c 	l.sw 28(r1),r2
    40cc:	9c 40 00 00 	l.addi r2,r0,0
    40d0:	e3 de 18 03 	l.and r30,r30,r3
    40d4:	d4 01 10 14 	l.sw 20(r1),r2
    40d8:	03 ff fb 6e 	l.j 2e90 <_vfprintf_r+0x81c>
    40dc:	92 41 00 61 	l.lbs r18,97(r1)
    40e0:	18 a0 00 01 	l.movhi r5,0x1
    40e4:	a8 a5 14 82 	l.ori r5,r5,0x1482
    40e8:	03 ff fb 64 	l.j 2e78 <_vfprintf_r+0x804>
    40ec:	d4 01 28 38 	l.sw 56(r1),r5
    40f0:	9c 60 ff ff 	l.addi r3,r0,-1
    40f4:	03 ff f9 df 	l.j 2870 <_vfprintf_r+0x1fc>
    40f8:	d4 01 18 14 	l.sw 20(r1),r3
    40fc:	a8 74 00 00 	l.ori r3,r20,0x0
    4100:	a8 9a 00 00 	l.ori r4,r26,0x0
    4104:	04 00 19 34 	l.jal a5d4 <__sprint_r>
    4108:	9c a1 00 7c 	l.addi r5,r1,124
    410c:	bc 2b 00 00 	l.sfnei r11,0
    4110:	13 ff fa 28 	l.bf 29b0 <_vfprintf_r+0x33c>
    4114:	86 41 00 64 	l.lwz r18,100(r1)
    4118:	84 41 00 84 	l.lwz r2,132(r1)
    411c:	03 ff ff a9 	l.j 3fc0 <_vfprintf_r+0x194c>
    4120:	ab 96 00 00 	l.ori r28,r22,0x0
    4124:	9c 40 00 06 	l.addi r2,r0,6
    4128:	d4 01 10 14 	l.sw 20(r1),r2
    412c:	84 41 00 48 	l.lwz r2,72(r1)
    4130:	bd 62 00 00 	l.sfgesi r2,0
    4134:	a8 5e 01 00 	l.ori r2,r30,0x100
    4138:	0c 00 01 28 	l.bnf 45d8 <_vfprintf_r+0x1f64>
    413c:	d4 01 10 24 	l.sw 36(r1),r2
    4140:	9c 40 00 00 	l.addi r2,r0,0
    4144:	87 01 00 48 	l.lwz r24,72(r1)
    4148:	d4 01 10 34 	l.sw 52(r1),r2
    414c:	bc 12 00 46 	l.sfeqi r18,70
    4150:	10 00 00 88 	l.bf 4370 <_vfprintf_r+0x1cfc>
    4154:	84 41 00 4c 	l.lwz r2,76(r1)
    4158:	bc 32 00 45 	l.sfnei r18,69
    415c:	13 ff ff 07 	l.bf 3d78 <_vfprintf_r+0x1704>
    4160:	84 61 00 14 	l.lwz r3,20(r1)
    4164:	9c c1 00 68 	l.addi r6,r1,104
    4168:	9c 43 00 01 	l.addi r2,r3,1
    416c:	84 61 00 4c 	l.lwz r3,76(r1)
    4170:	d4 01 30 00 	l.sw 0(r1),r6
    4174:	a8 a3 00 00 	l.ori r5,r3,0x0
    4178:	9c 61 00 74 	l.addi r3,r1,116
    417c:	a8 98 00 00 	l.ori r4,r24,0x0
    4180:	d4 01 18 04 	l.sw 4(r1),r3
    4184:	9c c0 00 02 	l.addi r6,r0,2
    4188:	a8 74 00 00 	l.ori r3,r20,0x0
    418c:	a8 e2 00 00 	l.ori r7,r2,0x0
    4190:	04 00 03 8e 	l.jal 4fc8 <_dtoa_r>
    4194:	9d 01 00 64 	l.addi r8,r1,100
    4198:	d4 01 58 38 	l.sw 56(r1),r11
    419c:	84 81 00 38 	l.lwz r4,56(r1)
    41a0:	03 ff ff 0a 	l.j 3dc8 <_vfprintf_r+0x1754>
    41a4:	e0 44 10 00 	l.add r2,r4,r2
    41a8:	a8 74 00 00 	l.ori r3,r20,0x0
    41ac:	a8 9a 00 00 	l.ori r4,r26,0x0
    41b0:	04 00 19 09 	l.jal a5d4 <__sprint_r>
    41b4:	9c a1 00 7c 	l.addi r5,r1,124
    41b8:	bc 2b 00 00 	l.sfnei r11,0
    41bc:	13 ff f9 fd 	l.bf 29b0 <_vfprintf_r+0x33c>
    41c0:	84 41 00 84 	l.lwz r2,132(r1)
    41c4:	03 ff fd 00 	l.j 35c4 <_vfprintf_r+0xf50>
    41c8:	ab 96 00 00 	l.ori r28,r22,0x0
    41cc:	a8 74 00 00 	l.ori r3,r20,0x0
    41d0:	a8 9a 00 00 	l.ori r4,r26,0x0
    41d4:	04 00 19 00 	l.jal a5d4 <__sprint_r>
    41d8:	9c a1 00 7c 	l.addi r5,r1,124
    41dc:	bc 2b 00 00 	l.sfnei r11,0
    41e0:	13 ff f9 f4 	l.bf 29b0 <_vfprintf_r+0x33c>
    41e4:	84 41 00 84 	l.lwz r2,132(r1)
    41e8:	84 61 00 80 	l.lwz r3,128(r1)
    41ec:	ab 96 00 00 	l.ori r28,r22,0x0
    41f0:	84 e1 00 2c 	l.lwz r7,44(r1)
    41f4:	9c 63 00 01 	l.addi r3,r3,1
    41f8:	e0 42 38 00 	l.add r2,r2,r7
    41fc:	84 81 00 38 	l.lwz r4,56(r1)
    4200:	d4 1c 38 04 	l.sw 4(r28),r7
    4204:	d4 1c 20 00 	l.sw 0(r28),r4
    4208:	d4 01 10 84 	l.sw 132(r1),r2
    420c:	bd 43 00 07 	l.sfgtsi r3,7
    4210:	0f ff fc 28 	l.bnf 32b0 <_vfprintf_r+0xc3c>
    4214:	d4 01 18 80 	l.sw 128(r1),r3
    4218:	03 ff fc af 	l.j 34d4 <_vfprintf_r+0xe60>
    421c:	a8 74 00 00 	l.ori r3,r20,0x0
    4220:	04 00 18 64 	l.jal a3b0 <strlen>
    4224:	d4 01 20 14 	l.sw 20(r1),r4
    4228:	ac 6b ff ff 	l.xori r3,r11,-1
    422c:	d4 01 10 24 	l.sw 36(r1),r2
    4230:	b8 43 00 9f 	l.srai r2,r3,0x1f
    4234:	84 a1 00 14 	l.lwz r5,20(r1)
    4238:	d4 01 58 20 	l.sw 32(r1),r11
    423c:	e0 4b 10 03 	l.and r2,r11,r2
    4240:	92 41 00 61 	l.lbs r18,97(r1)
    4244:	d4 01 28 40 	l.sw 64(r1),r5
    4248:	03 ff fa 0a 	l.j 2a70 <_vfprintf_r+0x3fc>
    424c:	d4 01 10 1c 	l.sw 28(r1),r2
    4250:	a8 74 00 00 	l.ori r3,r20,0x0
    4254:	a8 9a 00 00 	l.ori r4,r26,0x0
    4258:	04 00 18 df 	l.jal a5d4 <__sprint_r>
    425c:	9c a1 00 7c 	l.addi r5,r1,124
    4260:	bc 2b 00 00 	l.sfnei r11,0
    4264:	13 ff f9 d3 	l.bf 29b0 <_vfprintf_r+0x33c>
    4268:	84 41 00 84 	l.lwz r2,132(r1)
    426c:	03 ff fd a3 	l.j 38f8 <_vfprintf_r+0x1284>
    4270:	ab 96 00 00 	l.ori r28,r22,0x0
    4274:	84 41 00 38 	l.lwz r2,56(r1)
    4278:	e0 56 10 02 	l.sub r2,r22,r2
    427c:	03 ff fa 69 	l.j 2c20 <_vfprintf_r+0x5ac>
    4280:	d4 01 10 20 	l.sw 32(r1),r2
    4284:	9c 63 00 01 	l.addi r3,r3,1
    4288:	e0 42 90 00 	l.add r2,r2,r18
    428c:	d4 1c 70 00 	l.sw 0(r28),r14
    4290:	d4 1c 90 04 	l.sw 4(r28),r18
    4294:	d4 01 10 84 	l.sw 132(r1),r2
    4298:	bd 43 00 07 	l.sfgtsi r3,7
    429c:	13 ff ff cc 	l.bf 41cc <_vfprintf_r+0x1b58>
    42a0:	d4 01 18 80 	l.sw 128(r1),r3
    42a4:	03 ff ff d3 	l.j 41f0 <_vfprintf_r+0x1b7c>
    42a8:	9f 9c 00 08 	l.addi r28,r28,8
    42ac:	a8 74 00 00 	l.ori r3,r20,0x0
    42b0:	a8 9a 00 00 	l.ori r4,r26,0x0
    42b4:	04 00 18 c8 	l.jal a5d4 <__sprint_r>
    42b8:	9c a1 00 7c 	l.addi r5,r1,124
    42bc:	bc 2b 00 00 	l.sfnei r11,0
    42c0:	13 ff f9 bc 	l.bf 29b0 <_vfprintf_r+0x33c>
    42c4:	86 41 00 64 	l.lwz r18,100(r1)
    42c8:	84 41 00 84 	l.lwz r2,132(r1)
    42cc:	03 ff fe 07 	l.j 3ae8 <_vfprintf_r+0x1474>
    42d0:	ab 96 00 00 	l.ori r28,r22,0x0
    42d4:	a8 74 00 00 	l.ori r3,r20,0x0
    42d8:	a8 9a 00 00 	l.ori r4,r26,0x0
    42dc:	04 00 18 be 	l.jal a5d4 <__sprint_r>
    42e0:	9c a1 00 7c 	l.addi r5,r1,124
    42e4:	bc 2b 00 00 	l.sfnei r11,0
    42e8:	13 ff f9 b2 	l.bf 29b0 <_vfprintf_r+0x33c>
    42ec:	86 41 00 64 	l.lwz r18,100(r1)
    42f0:	84 a1 00 2c 	l.lwz r5,44(r1)
    42f4:	84 41 00 84 	l.lwz r2,132(r1)
    42f8:	e2 45 90 02 	l.sub r18,r5,r18
    42fc:	03 ff fe 0f 	l.j 3b38 <_vfprintf_r+0x14c4>
    4300:	ab 96 00 00 	l.ori r28,r22,0x0
    4304:	86 41 00 14 	l.lwz r18,20(r1)
    4308:	bc b2 00 06 	l.sfleui r18,6
    430c:	10 00 00 03 	l.bf 4318 <_vfprintf_r+0x1ca4>
    4310:	15 00 00 00 	l.nop 0x0
    4314:	9e 40 00 06 	l.addi r18,r0,6
    4318:	d4 01 90 20 	l.sw 32(r1),r18
    431c:	d4 01 10 24 	l.sw 36(r1),r2
    4320:	84 a1 00 20 	l.lwz r5,32(r1)
    4324:	18 e0 00 01 	l.movhi r7,0x1
    4328:	ac 65 ff ff 	l.xori r3,r5,-1
    432c:	9e 40 00 00 	l.addi r18,r0,0
    4330:	b8 43 00 9f 	l.srai r2,r3,0x1f
    4334:	a8 e7 14 b4 	l.ori r7,r7,0x14b4
    4338:	d4 01 90 14 	l.sw 20(r1),r18
    433c:	e0 45 10 03 	l.and r2,r5,r2
    4340:	d4 01 90 40 	l.sw 64(r1),r18
    4344:	d4 01 10 1c 	l.sw 28(r1),r2
    4348:	03 ff f9 d0 	l.j 2a88 <_vfprintf_r+0x414>
    434c:	d4 01 38 38 	l.sw 56(r1),r7
    4350:	d4 01 10 1c 	l.sw 28(r1),r2
    4354:	9c 40 00 00 	l.addi r2,r0,0
    4358:	87 c1 00 24 	l.lwz r30,36(r1)
    435c:	d8 01 18 61 	l.sb 97(r1),r3
    4360:	d4 01 70 24 	l.sw 36(r1),r14
    4364:	9e 40 00 2d 	l.addi r18,r0,45
    4368:	03 ff f9 c5 	l.j 2a7c <_vfprintf_r+0x408>
    436c:	d4 01 10 14 	l.sw 20(r1),r2
    4370:	9c 61 00 68 	l.addi r3,r1,104
    4374:	a8 a2 00 00 	l.ori r5,r2,0x0
    4378:	9c 41 00 74 	l.addi r2,r1,116
    437c:	d4 01 18 00 	l.sw 0(r1),r3
    4380:	d4 01 10 04 	l.sw 4(r1),r2
    4384:	a8 98 00 00 	l.ori r4,r24,0x0
    4388:	a8 74 00 00 	l.ori r3,r20,0x0
    438c:	9c c0 00 03 	l.addi r6,r0,3
    4390:	84 e1 00 14 	l.lwz r7,20(r1)
    4394:	04 00 03 0d 	l.jal 4fc8 <_dtoa_r>
    4398:	9d 01 00 64 	l.addi r8,r1,100
    439c:	8c 4b 00 00 	l.lbz r2,0(r11)
    43a0:	84 a1 00 14 	l.lwz r5,20(r1)
    43a4:	ac 42 00 30 	l.xori r2,r2,48
    43a8:	e0 ab 28 00 	l.add r5,r11,r5
    43ac:	9c 42 ff ff 	l.addi r2,r2,-1
    43b0:	d4 01 58 38 	l.sw 56(r1),r11
    43b4:	bd 62 00 00 	l.sfgesi r2,0
    43b8:	10 00 00 99 	l.bf 461c <_vfprintf_r+0x1fa8>
    43bc:	d4 01 28 1c 	l.sw 28(r1),r5
    43c0:	84 41 00 4c 	l.lwz r2,76(r1)
    43c4:	18 80 00 01 	l.movhi r4,0x1
    43c8:	a9 a2 00 00 	l.ori r13,r2,0x0
    43cc:	a9 98 00 00 	l.ori r12,r24,0x0
    43d0:	a8 84 14 c0 	l.ori r4,r4,0x14c0
    43d4:	84 a4 00 00 	l.lwz r5,0(r4)
    43d8:	84 c4 00 04 	l.lwz r6,4(r4)
    43dc:	e0 6c 00 04 	l.or r3,r12,r0
    43e0:	e0 8d 00 04 	l.or r4,r13,r0
    43e4:	04 00 2d 34 	l.jal f8b4 <__eqdf2>
    43e8:	9c 40 00 01 	l.addi r2,r0,1
    43ec:	bc 2b 00 00 	l.sfnei r11,0
    43f0:	10 00 00 04 	l.bf 4400 <_vfprintf_r+0x1d8c>
    43f4:	a4 42 00 ff 	l.andi r2,r2,0xff
    43f8:	a8 4b 00 00 	l.ori r2,r11,0x0
    43fc:	a4 42 00 ff 	l.andi r2,r2,0xff
    4400:	bc 22 00 00 	l.sfnei r2,0
    4404:	0c 00 00 86 	l.bnf 461c <_vfprintf_r+0x1fa8>
    4408:	84 a1 00 14 	l.lwz r5,20(r1)
    440c:	9c 40 00 01 	l.addi r2,r0,1
    4410:	e0 42 28 02 	l.sub r2,r2,r5
    4414:	d4 01 10 64 	l.sw 100(r1),r2
    4418:	84 e1 00 1c 	l.lwz r7,28(r1)
    441c:	03 ff fe 6b 	l.j 3dc8 <_vfprintf_r+0x1754>
    4420:	e0 47 10 00 	l.add r2,r7,r2
    4424:	9e 40 00 2d 	l.addi r18,r0,45
    4428:	03 ff fa 8e 	l.j 2e60 <_vfprintf_r+0x7ec>
    442c:	d8 01 10 61 	l.sb 97(r1),r2
    4430:	84 e1 00 3c 	l.lwz r7,60(r1)
    4434:	bd 47 00 65 	l.sfgtsi r7,101
    4438:	0c 00 00 be 	l.bnf 4730 <_vfprintf_r+0x20bc>
    443c:	84 81 00 3c 	l.lwz r4,60(r1)
    4440:	84 41 00 64 	l.lwz r2,100(r1)
    4444:	bc 04 00 66 	l.sfeqi r4,102
    4448:	0f ff fe 92 	l.bnf 3e90 <_vfprintf_r+0x181c>
    444c:	d4 01 10 40 	l.sw 64(r1),r2
    4450:	bd a2 00 00 	l.sflesi r2,0
    4454:	10 00 00 a0 	l.bf 46d4 <_vfprintf_r+0x2060>
    4458:	84 41 00 14 	l.lwz r2,20(r1)
    445c:	bc 22 00 00 	l.sfnei r2,0
    4460:	10 00 00 81 	l.bf 4664 <_vfprintf_r+0x1ff0>
    4464:	9e 42 00 01 	l.addi r18,r2,1
    4468:	a4 5e 00 01 	l.andi r2,r30,0x1
    446c:	bc 22 00 00 	l.sfnei r2,0
    4470:	10 00 00 7b 	l.bf 465c <_vfprintf_r+0x1fe8>
    4474:	15 00 00 00 	l.nop 0x0
    4478:	84 41 00 40 	l.lwz r2,64(r1)
    447c:	03 ff fe 92 	l.j 3ec4 <_vfprintf_r+0x1850>
    4480:	d4 01 10 20 	l.sw 32(r1),r2
    4484:	84 a1 00 3c 	l.lwz r5,60(r1)
    4488:	9c a5 ff fe 	l.addi r5,r5,-2
    448c:	d4 01 28 3c 	l.sw 60(r1),r5
    4490:	9c 42 ff ff 	l.addi r2,r2,-1
    4494:	84 61 00 3c 	l.lwz r3,60(r1)
    4498:	d4 01 10 64 	l.sw 100(r1),r2
    449c:	bd 62 00 00 	l.sfgesi r2,0
    44a0:	0c 00 00 97 	l.bnf 46fc <_vfprintf_r+0x2088>
    44a4:	d8 01 18 6c 	l.sb 108(r1),r3
    44a8:	9c a0 00 2b 	l.addi r5,r0,43
    44ac:	d8 01 28 6d 	l.sb 109(r1),r5
    44b0:	bd a2 00 09 	l.sflesi r2,9
    44b4:	10 00 00 5e 	l.bf 462c <_vfprintf_r+0x1fb8>
    44b8:	9c 80 00 30 	l.addi r4,r0,48
    44bc:	9f 01 00 7b 	l.addi r24,r1,123
    44c0:	aa 58 00 00 	l.ori r18,r24,0x0
    44c4:	a8 62 00 00 	l.ori r3,r2,0x0
    44c8:	9c 80 00 0a 	l.addi r4,r0,10
    44cc:	04 00 27 11 	l.jal e110 <__modsi3>
    44d0:	9e 52 ff ff 	l.addi r18,r18,-1
    44d4:	9d 6b 00 30 	l.addi r11,r11,48
    44d8:	a8 62 00 00 	l.ori r3,r2,0x0
    44dc:	9c 80 00 0a 	l.addi r4,r0,10
    44e0:	04 00 26 eb 	l.jal e08c <__divsi3>
    44e4:	d8 12 58 00 	l.sb 0(r18),r11
    44e8:	bd 4b 00 09 	l.sfgtsi r11,9
    44ec:	13 ff ff f6 	l.bf 44c4 <_vfprintf_r+0x1e50>
    44f0:	a8 4b 00 00 	l.ori r2,r11,0x0
    44f4:	9c 4b 00 30 	l.addi r2,r11,48
    44f8:	9c 72 ff ff 	l.addi r3,r18,-1
    44fc:	b8 42 00 18 	l.slli r2,r2,0x18
    4500:	e4 63 c0 00 	l.sfgeu r3,r24
    4504:	b8 42 00 98 	l.srai r2,r2,0x18
    4508:	10 00 00 8c 	l.bf 4738 <_vfprintf_r+0x20c4>
    450c:	db f2 17 ff 	l.sb -1(r18),r2
    4510:	00 00 00 03 	l.j 451c <_vfprintf_r+0x1ea8>
    4514:	9c 81 00 6e 	l.addi r4,r1,110
    4518:	90 43 00 00 	l.lbs r2,0(r3)
    451c:	9c 63 00 01 	l.addi r3,r3,1
    4520:	d8 04 10 00 	l.sb 0(r4),r2
    4524:	e4 23 c0 00 	l.sfne r3,r24
    4528:	13 ff ff fc 	l.bf 4518 <_vfprintf_r+0x1ea4>
    452c:	9c 84 00 01 	l.addi r4,r4,1
    4530:	84 e1 00 10 	l.lwz r7,16(r1)
    4534:	9c 61 00 6e 	l.addi r3,r1,110
    4538:	e0 47 90 02 	l.sub r2,r7,r18
    453c:	e0 43 10 00 	l.add r2,r3,r2
    4540:	84 a1 00 0c 	l.lwz r5,12(r1)
    4544:	e0 42 28 02 	l.sub r2,r2,r5
    4548:	d4 01 10 54 	l.sw 84(r1),r2
    454c:	84 41 00 2c 	l.lwz r2,44(r1)
    4550:	84 61 00 54 	l.lwz r3,84(r1)
    4554:	bd 42 00 01 	l.sfgtsi r2,1
    4558:	e0 42 18 00 	l.add r2,r2,r3
    455c:	0c 00 00 54 	l.bnf 46ac <_vfprintf_r+0x2038>
    4560:	d4 01 10 20 	l.sw 32(r1),r2
    4564:	84 41 00 20 	l.lwz r2,32(r1)
    4568:	9c 42 00 01 	l.addi r2,r2,1
    456c:	d4 01 10 20 	l.sw 32(r1),r2
    4570:	9c 40 00 00 	l.addi r2,r0,0
    4574:	84 61 00 20 	l.lwz r3,32(r1)
    4578:	d4 01 10 40 	l.sw 64(r1),r2
    457c:	ac 43 ff ff 	l.xori r2,r3,-1
    4580:	b8 42 00 9f 	l.srai r2,r2,0x1f
    4584:	03 ff fe 50 	l.j 3ec4 <_vfprintf_r+0x1850>
    4588:	e0 43 10 03 	l.and r2,r3,r2
    458c:	84 81 00 14 	l.lwz r4,20(r1)
    4590:	92 41 00 61 	l.lbs r18,97(r1)
    4594:	d4 01 20 1c 	l.sw 28(r1),r4
    4598:	d4 01 20 20 	l.sw 32(r1),r4
    459c:	d4 01 58 14 	l.sw 20(r1),r11
    45a0:	d4 01 10 24 	l.sw 36(r1),r2
    45a4:	03 ff f9 33 	l.j 2a70 <_vfprintf_r+0x3fc>
    45a8:	d4 01 58 40 	l.sw 64(r1),r11
    45ac:	a8 74 00 00 	l.ori r3,r20,0x0
    45b0:	a8 9a 00 00 	l.ori r4,r26,0x0
    45b4:	04 00 18 08 	l.jal a5d4 <__sprint_r>
    45b8:	9c a1 00 7c 	l.addi r5,r1,124
    45bc:	bc 2b 00 00 	l.sfnei r11,0
    45c0:	13 ff f8 fc 	l.bf 29b0 <_vfprintf_r+0x33c>
    45c4:	86 41 00 64 	l.lwz r18,100(r1)
    45c8:	84 41 00 84 	l.lwz r2,132(r1)
    45cc:	84 61 00 80 	l.lwz r3,128(r1)
    45d0:	03 ff fe 92 	l.j 4018 <_vfprintf_r+0x19a4>
    45d4:	ab 96 00 00 	l.ori r28,r22,0x0
    45d8:	84 41 00 48 	l.lwz r2,72(r1)
    45dc:	18 60 80 00 	l.movhi r3,0x8000
    45e0:	e3 02 18 00 	l.add r24,r2,r3
    45e4:	9c 40 00 2d 	l.addi r2,r0,45
    45e8:	03 ff fe d9 	l.j 414c <_vfprintf_r+0x1ad8>
    45ec:	d4 01 10 34 	l.sw 52(r1),r2
    45f0:	bd 42 00 00 	l.sfgtsi r2,0
    45f4:	0c 00 00 46 	l.bnf 470c <_vfprintf_r+0x2098>
    45f8:	9c 40 00 01 	l.addi r2,r0,1
    45fc:	84 81 00 2c 	l.lwz r4,44(r1)
    4600:	e0 42 20 00 	l.add r2,r2,r4
    4604:	d4 01 10 20 	l.sw 32(r1),r2
    4608:	ac 42 ff ff 	l.xori r2,r2,-1
    460c:	84 a1 00 20 	l.lwz r5,32(r1)
    4610:	b8 42 00 9f 	l.srai r2,r2,0x1f
    4614:	03 ff fe 2c 	l.j 3ec4 <_vfprintf_r+0x1850>
    4618:	e0 45 10 03 	l.and r2,r5,r2
    461c:	03 ff ff 7f 	l.j 4418 <_vfprintf_r+0x1da4>
    4620:	84 41 00 64 	l.lwz r2,100(r1)
    4624:	03 ff fe 03 	l.j 3e30 <_vfprintf_r+0x17bc>
    4628:	84 61 00 74 	l.lwz r3,116(r1)
    462c:	9c 42 00 30 	l.addi r2,r2,48
    4630:	d8 01 10 6f 	l.sb 111(r1),r2
    4634:	d8 01 20 6e 	l.sb 110(r1),r4
    4638:	03 ff ff c2 	l.j 4540 <_vfprintf_r+0x1ecc>
    463c:	9c 41 00 70 	l.addi r2,r1,112
    4640:	9c 42 00 01 	l.addi r2,r2,1
    4644:	d4 01 10 20 	l.sw 32(r1),r2
    4648:	ac 42 ff ff 	l.xori r2,r2,-1
    464c:	84 61 00 20 	l.lwz r3,32(r1)
    4650:	b8 42 00 9f 	l.srai r2,r2,0x1f
    4654:	03 ff fe 1c 	l.j 3ec4 <_vfprintf_r+0x1850>
    4658:	e0 43 10 03 	l.and r2,r3,r2
    465c:	84 41 00 14 	l.lwz r2,20(r1)
    4660:	9e 42 00 01 	l.addi r18,r2,1
    4664:	84 41 00 40 	l.lwz r2,64(r1)
    4668:	e2 42 90 00 	l.add r18,r2,r18
    466c:	ac 52 ff ff 	l.xori r2,r18,-1
    4670:	d4 01 90 20 	l.sw 32(r1),r18
    4674:	b8 42 00 9f 	l.srai r2,r2,0x1f
    4678:	03 ff fe 13 	l.j 3ec4 <_vfprintf_r+0x1850>
    467c:	e0 52 10 03 	l.and r2,r18,r2
    4680:	84 61 00 24 	l.lwz r3,36(r1)
    4684:	84 81 00 24 	l.lwz r4,36(r1)
    4688:	84 63 00 00 	l.lwz r3,0(r3)
    468c:	9c 84 00 04 	l.addi r4,r4,4
    4690:	d4 01 18 14 	l.sw 20(r1),r3
    4694:	bd 63 00 00 	l.sfgesi r3,0
    4698:	13 ff f8 74 	l.bf 2868 <_vfprintf_r+0x1f4>
    469c:	d4 01 20 24 	l.sw 36(r1),r4
    46a0:	9c e0 ff ff 	l.addi r7,r0,-1
    46a4:	03 ff f8 71 	l.j 2868 <_vfprintf_r+0x1f4>
    46a8:	d4 01 38 14 	l.sw 20(r1),r7
    46ac:	a4 7e 00 01 	l.andi r3,r30,0x1
    46b0:	bc 23 00 00 	l.sfnei r3,0
    46b4:	13 ff ff ac 	l.bf 4564 <_vfprintf_r+0x1ef0>
    46b8:	15 00 00 00 	l.nop 0x0
    46bc:	ac 42 ff ff 	l.xori r2,r2,-1
    46c0:	84 81 00 20 	l.lwz r4,32(r1)
    46c4:	b8 42 00 9f 	l.srai r2,r2,0x1f
    46c8:	d4 01 18 40 	l.sw 64(r1),r3
    46cc:	03 ff fd fe 	l.j 3ec4 <_vfprintf_r+0x1850>
    46d0:	e0 44 10 03 	l.and r2,r4,r2
    46d4:	bc 22 00 00 	l.sfnei r2,0
    46d8:	10 00 00 12 	l.bf 4720 <_vfprintf_r+0x20ac>
    46dc:	84 41 00 14 	l.lwz r2,20(r1)
    46e0:	a4 5e 00 01 	l.andi r2,r30,0x1
    46e4:	bc 02 00 00 	l.sfeqi r2,0
    46e8:	0c 00 00 0d 	l.bnf 471c <_vfprintf_r+0x20a8>
    46ec:	15 00 00 00 	l.nop 0x0
    46f0:	9c 40 00 01 	l.addi r2,r0,1
    46f4:	03 ff fd f4 	l.j 3ec4 <_vfprintf_r+0x1850>
    46f8:	d4 01 10 20 	l.sw 32(r1),r2
    46fc:	9c 80 00 2d 	l.addi r4,r0,45
    4700:	e0 40 10 02 	l.sub r2,r0,r2
    4704:	03 ff ff 6b 	l.j 44b0 <_vfprintf_r+0x1e3c>
    4708:	d8 01 20 6d 	l.sb 109(r1),r4
    470c:	9c 40 00 02 	l.addi r2,r0,2
    4710:	84 61 00 40 	l.lwz r3,64(r1)
    4714:	03 ff ff ba 	l.j 45fc <_vfprintf_r+0x1f88>
    4718:	e0 42 18 02 	l.sub r2,r2,r3
    471c:	84 41 00 14 	l.lwz r2,20(r1)
    4720:	03 ff ff c9 	l.j 4644 <_vfprintf_r+0x1fd0>
    4724:	9c 42 00 02 	l.addi r2,r2,2
    4728:	03 ff fe 9d 	l.j 419c <_vfprintf_r+0x1b28>
    472c:	84 41 00 14 	l.lwz r2,20(r1)
    4730:	03 ff ff 58 	l.j 4490 <_vfprintf_r+0x1e1c>
    4734:	84 41 00 64 	l.lwz r2,100(r1)
    4738:	03 ff ff 82 	l.j 4540 <_vfprintf_r+0x1ecc>
    473c:	9c 41 00 6e 	l.addi r2,r1,110

00004740 <vfprintf>:
    4740:	d7 e1 4f fc 	l.sw -4(r1),r9
    4744:	d7 e1 17 f0 	l.sw -16(r1),r2
    4748:	d7 e1 77 f4 	l.sw -12(r1),r14
    474c:	d7 e1 97 f8 	l.sw -8(r1),r18
    4750:	d7 e1 0f ec 	l.sw -20(r1),r1
    4754:	9c 21 ff ec 	l.addi r1,r1,-20
    4758:	aa 43 00 00 	l.ori r18,r3,0x0
    475c:	a9 c4 00 00 	l.ori r14,r4,0x0
    4760:	04 00 0c da 	l.jal 7ac8 <__getreent>
    4764:	a8 45 00 00 	l.ori r2,r5,0x0
    4768:	a8 92 00 00 	l.ori r4,r18,0x0
    476c:	a8 ae 00 00 	l.ori r5,r14,0x0
    4770:	a8 c2 00 00 	l.ori r6,r2,0x0
    4774:	07 ff f7 c0 	l.jal 2674 <_vfprintf_r>
    4778:	a8 6b 00 00 	l.ori r3,r11,0x0
    477c:	9c 21 00 14 	l.addi r1,r1,20
    4780:	85 21 ff fc 	l.lwz r9,-4(r1)
    4784:	84 21 ff ec 	l.lwz r1,-20(r1)
    4788:	84 41 ff f0 	l.lwz r2,-16(r1)
    478c:	85 c1 ff f4 	l.lwz r14,-12(r1)
    4790:	44 00 48 00 	l.jr r9
    4794:	86 41 ff f8 	l.lwz r18,-8(r1)

00004798 <__sbprintf>:
    4798:	94 e4 00 0c 	l.lhz r7,12(r4)
    479c:	d7 e1 17 f0 	l.sw -16(r1),r2
    47a0:	d7 e1 77 f4 	l.sw -12(r1),r14
    47a4:	a8 44 00 00 	l.ori r2,r4,0x0
    47a8:	85 c4 00 64 	l.lwz r14,100(r4)
    47ac:	9c 80 ff fd 	l.addi r4,r0,-3
    47b0:	d7 e1 97 f8 	l.sw -8(r1),r18
    47b4:	e0 e7 20 03 	l.and r7,r7,r4
    47b8:	d7 e1 4f fc 	l.sw -4(r1),r9
    47bc:	d7 e1 0f ec 	l.sw -20(r1),r1
    47c0:	9c 21 fb 84 	l.addi r1,r1,-1148
    47c4:	9d 00 04 00 	l.addi r8,r0,1024
    47c8:	dc 01 38 0c 	l.sh 12(r1),r7
    47cc:	94 e2 00 0e 	l.lhz r7,14(r2)
    47d0:	9d 61 00 68 	l.addi r11,r1,104
    47d4:	85 a2 00 1c 	l.lwz r13,28(r2)
    47d8:	85 82 00 24 	l.lwz r12,36(r2)
    47dc:	dc 01 38 0e 	l.sh 14(r1),r7
    47e0:	a8 81 00 00 	l.ori r4,r1,0x0
    47e4:	9c e0 00 00 	l.addi r7,r0,0
    47e8:	d4 01 70 64 	l.sw 100(r1),r14
    47ec:	aa 43 00 00 	l.ori r18,r3,0x0
    47f0:	d4 01 68 1c 	l.sw 28(r1),r13
    47f4:	d4 01 60 24 	l.sw 36(r1),r12
    47f8:	d4 01 58 00 	l.sw 0(r1),r11
    47fc:	d4 01 58 10 	l.sw 16(r1),r11
    4800:	d4 01 40 08 	l.sw 8(r1),r8
    4804:	d4 01 40 14 	l.sw 20(r1),r8
    4808:	07 ff f7 9b 	l.jal 2674 <_vfprintf_r>
    480c:	d4 01 38 18 	l.sw 24(r1),r7
    4810:	bd 8b 00 00 	l.sfltsi r11,0
    4814:	10 00 00 08 	l.bf 4834 <__sbprintf+0x9c>
    4818:	a9 cb 00 00 	l.ori r14,r11,0x0
    481c:	a8 72 00 00 	l.ori r3,r18,0x0
    4820:	04 00 09 ad 	l.jal 6ed4 <_fflush_r>
    4824:	a8 81 00 00 	l.ori r4,r1,0x0
    4828:	bc 0b 00 00 	l.sfeqi r11,0
    482c:	0c 00 00 12 	l.bnf 4874 <__sbprintf+0xdc>
    4830:	15 00 00 00 	l.nop 0x0
    4834:	94 61 00 0c 	l.lhz r3,12(r1)
    4838:	a4 63 00 40 	l.andi r3,r3,0x40
    483c:	bc 03 00 00 	l.sfeqi r3,0
    4840:	10 00 00 05 	l.bf 4854 <__sbprintf+0xbc>
    4844:	15 00 00 00 	l.nop 0x0
    4848:	94 62 00 0c 	l.lhz r3,12(r2)
    484c:	a8 63 00 40 	l.ori r3,r3,0x40
    4850:	dc 02 18 0c 	l.sh 12(r2),r3
    4854:	9c 21 04 7c 	l.addi r1,r1,1148
    4858:	a9 6e 00 00 	l.ori r11,r14,0x0
    485c:	85 21 ff fc 	l.lwz r9,-4(r1)
    4860:	84 21 ff ec 	l.lwz r1,-20(r1)
    4864:	84 41 ff f0 	l.lwz r2,-16(r1)
    4868:	85 c1 ff f4 	l.lwz r14,-12(r1)
    486c:	44 00 48 00 	l.jr r9
    4870:	86 41 ff f8 	l.lwz r18,-8(r1)
    4874:	03 ff ff f0 	l.j 4834 <__sbprintf+0x9c>
    4878:	9d c0 ff ff 	l.addi r14,r0,-1

0000487c <__swsetup_r>:
    487c:	d7 e1 17 f4 	l.sw -12(r1),r2
    4880:	d7 e1 77 f8 	l.sw -8(r1),r14
    4884:	d7 e1 4f fc 	l.sw -4(r1),r9
    4888:	d7 e1 0f f0 	l.sw -16(r1),r1
    488c:	9c 21 ff f0 	l.addi r1,r1,-16
    4890:	a9 c3 00 00 	l.ori r14,r3,0x0
    4894:	04 00 0c 8d 	l.jal 7ac8 <__getreent>
    4898:	a8 44 00 00 	l.ori r2,r4,0x0
    489c:	bc 0b 00 00 	l.sfeqi r11,0
    48a0:	10 00 00 06 	l.bf 48b8 <__swsetup_r+0x3c>
    48a4:	15 00 00 00 	l.nop 0x0
    48a8:	84 6b 00 38 	l.lwz r3,56(r11)
    48ac:	bc 23 00 00 	l.sfnei r3,0
    48b0:	0c 00 00 44 	l.bnf 49c0 <__swsetup_r+0x144>
    48b4:	15 00 00 00 	l.nop 0x0
    48b8:	98 a2 00 0c 	l.lhs r5,12(r2)
    48bc:	a4 85 ff ff 	l.andi r4,r5,0xffff
    48c0:	a4 64 00 08 	l.andi r3,r4,0x8
    48c4:	bc 03 00 00 	l.sfeqi r3,0
    48c8:	10 00 00 18 	l.bf 4928 <__swsetup_r+0xac>
    48cc:	a4 64 00 10 	l.andi r3,r4,0x10
    48d0:	84 c2 00 10 	l.lwz r6,16(r2)
    48d4:	bc 26 00 00 	l.sfnei r6,0
    48d8:	0c 00 00 21 	l.bnf 495c <__swsetup_r+0xe0>
    48dc:	a4 64 02 80 	l.andi r3,r4,0x280
    48e0:	a4 64 00 01 	l.andi r3,r4,0x1
    48e4:	bc 03 00 00 	l.sfeqi r3,0
    48e8:	10 00 00 26 	l.bf 4980 <__swsetup_r+0x104>
    48ec:	a4 84 00 02 	l.andi r4,r4,0x2
    48f0:	84 62 00 14 	l.lwz r3,20(r2)
    48f4:	9c 80 00 00 	l.addi r4,r0,0
    48f8:	e0 60 18 02 	l.sub r3,r0,r3
    48fc:	d4 02 20 08 	l.sw 8(r2),r4
    4900:	d4 02 18 18 	l.sw 24(r2),r3
    4904:	bc 26 00 00 	l.sfnei r6,0
    4908:	0c 00 00 26 	l.bnf 49a0 <__swsetup_r+0x124>
    490c:	9d 60 00 00 	l.addi r11,r0,0
    4910:	9c 21 00 10 	l.addi r1,r1,16
    4914:	85 21 ff fc 	l.lwz r9,-4(r1)
    4918:	84 21 ff f0 	l.lwz r1,-16(r1)
    491c:	84 41 ff f4 	l.lwz r2,-12(r1)
    4920:	44 00 48 00 	l.jr r9
    4924:	85 c1 ff f8 	l.lwz r14,-8(r1)
    4928:	bc 23 00 00 	l.sfnei r3,0
    492c:	0c 00 00 3c 	l.bnf 4a1c <__swsetup_r+0x1a0>
    4930:	a4 84 00 04 	l.andi r4,r4,0x4
    4934:	bc 24 00 00 	l.sfnei r4,0
    4938:	10 00 00 26 	l.bf 49d0 <__swsetup_r+0x154>
    493c:	15 00 00 00 	l.nop 0x0
    4940:	84 c2 00 10 	l.lwz r6,16(r2)
    4944:	a8 85 00 08 	l.ori r4,r5,0x8
    4948:	bc 26 00 00 	l.sfnei r6,0
    494c:	dc 02 20 0c 	l.sh 12(r2),r4
    4950:	13 ff ff e4 	l.bf 48e0 <__swsetup_r+0x64>
    4954:	a4 84 ff ff 	l.andi r4,r4,0xffff
    4958:	a4 64 02 80 	l.andi r3,r4,0x280
    495c:	bc 03 02 00 	l.sfeqi r3,512
    4960:	13 ff ff e1 	l.bf 48e4 <__swsetup_r+0x68>
    4964:	a4 64 00 01 	l.andi r3,r4,0x1
    4968:	a8 82 00 00 	l.ori r4,r2,0x0
    496c:	04 00 0c bc 	l.jal 7c5c <__smakebuf_r>
    4970:	a8 6e 00 00 	l.ori r3,r14,0x0
    4974:	94 82 00 0c 	l.lhz r4,12(r2)
    4978:	03 ff ff da 	l.j 48e0 <__swsetup_r+0x64>
    497c:	84 c2 00 10 	l.lwz r6,16(r2)
    4980:	bc 24 00 00 	l.sfnei r4,0
    4984:	10 00 00 03 	l.bf 4990 <__swsetup_r+0x114>
    4988:	15 00 00 00 	l.nop 0x0
    498c:	84 62 00 14 	l.lwz r3,20(r2)
    4990:	d4 02 18 08 	l.sw 8(r2),r3
    4994:	bc 26 00 00 	l.sfnei r6,0
    4998:	13 ff ff de 	l.bf 4910 <__swsetup_r+0x94>
    499c:	9d 60 00 00 	l.addi r11,r0,0
    49a0:	98 62 00 0c 	l.lhs r3,12(r2)
    49a4:	a4 83 00 80 	l.andi r4,r3,0x80
    49a8:	e4 04 58 00 	l.sfeq r4,r11
    49ac:	13 ff ff d9 	l.bf 4910 <__swsetup_r+0x94>
    49b0:	a8 63 00 40 	l.ori r3,r3,0x40
    49b4:	9d 60 ff ff 	l.addi r11,r0,-1
    49b8:	03 ff ff d6 	l.j 4910 <__swsetup_r+0x94>
    49bc:	dc 02 18 0c 	l.sh 12(r2),r3
    49c0:	04 00 0a 7c 	l.jal 73b0 <__sinit>
    49c4:	a8 6b 00 00 	l.ori r3,r11,0x0
    49c8:	03 ff ff bd 	l.j 48bc <__swsetup_r+0x40>
    49cc:	98 a2 00 0c 	l.lhs r5,12(r2)
    49d0:	84 82 00 30 	l.lwz r4,48(r2)
    49d4:	bc 04 00 00 	l.sfeqi r4,0
    49d8:	10 00 00 0a 	l.bf 4a00 <__swsetup_r+0x184>
    49dc:	9c 62 00 40 	l.addi r3,r2,64
    49e0:	e4 04 18 00 	l.sfeq r4,r3
    49e4:	10 00 00 06 	l.bf 49fc <__swsetup_r+0x180>
    49e8:	9c 60 00 00 	l.addi r3,r0,0
    49ec:	04 00 0a fc 	l.jal 75dc <_free_r>
    49f0:	a8 6e 00 00 	l.ori r3,r14,0x0
    49f4:	98 a2 00 0c 	l.lhs r5,12(r2)
    49f8:	9c 60 00 00 	l.addi r3,r0,0
    49fc:	d4 02 18 30 	l.sw 48(r2),r3
    4a00:	84 c2 00 10 	l.lwz r6,16(r2)
    4a04:	9c 80 ff db 	l.addi r4,r0,-37
    4a08:	9c 60 00 00 	l.addi r3,r0,0
    4a0c:	e0 a5 20 03 	l.and r5,r5,r4
    4a10:	d4 02 18 04 	l.sw 4(r2),r3
    4a14:	03 ff ff cc 	l.j 4944 <__swsetup_r+0xc8>
    4a18:	d4 02 30 00 	l.sw 0(r2),r6
    4a1c:	9c 60 00 09 	l.addi r3,r0,9
    4a20:	a8 a5 00 40 	l.ori r5,r5,0x40
    4a24:	d4 0e 18 00 	l.sw 0(r14),r3
    4a28:	dc 02 28 0c 	l.sh 12(r2),r5
    4a2c:	03 ff ff b9 	l.j 4910 <__swsetup_r+0x94>
    4a30:	9d 60 ff ff 	l.addi r11,r0,-1

00004a34 <__register_exitproc>:
    4a34:	d7 e1 17 e8 	l.sw -24(r1),r2
    4a38:	18 40 00 01 	l.movhi r2,0x1
    4a3c:	d7 e1 77 ec 	l.sw -20(r1),r14
    4a40:	a8 42 14 7c 	l.ori r2,r2,0x147c
    4a44:	d7 e1 97 f0 	l.sw -16(r1),r18
    4a48:	85 c2 00 00 	l.lwz r14,0(r2)
    4a4c:	d7 e1 a7 f4 	l.sw -12(r1),r20
    4a50:	85 0e 01 48 	l.lwz r8,328(r14)
    4a54:	d7 e1 b7 f8 	l.sw -8(r1),r22
    4a58:	d7 e1 4f fc 	l.sw -4(r1),r9
    4a5c:	d7 e1 0f e4 	l.sw -28(r1),r1
    4a60:	bc 28 00 00 	l.sfnei r8,0
    4a64:	9c 21 ff e4 	l.addi r1,r1,-28
    4a68:	aa c3 00 00 	l.ori r22,r3,0x0
    4a6c:	a8 44 00 00 	l.ori r2,r4,0x0
    4a70:	aa 85 00 00 	l.ori r20,r5,0x0
    4a74:	0c 00 00 3b 	l.bnf 4b60 <__register_exitproc+0x12c>
    4a78:	aa 46 00 00 	l.ori r18,r6,0x0
    4a7c:	84 e8 00 04 	l.lwz r7,4(r8)
    4a80:	bd 47 00 1f 	l.sfgtsi r7,31
    4a84:	10 00 00 14 	l.bf 4ad4 <__register_exitproc+0xa0>
    4a88:	18 60 00 00 	l.movhi r3,0x0
    4a8c:	bc 36 00 00 	l.sfnei r22,0
    4a90:	10 00 00 25 	l.bf 4b24 <__register_exitproc+0xf0>
    4a94:	9c a7 00 01 	l.addi r5,r7,1
    4a98:	9c e7 00 02 	l.addi r7,r7,2
    4a9c:	d4 08 28 04 	l.sw 4(r8),r5
    4aa0:	b8 e7 00 02 	l.slli r7,r7,0x2
    4aa4:	9d 60 00 00 	l.addi r11,r0,0
    4aa8:	e0 e8 38 00 	l.add r7,r8,r7
    4aac:	d4 07 10 00 	l.sw 0(r7),r2
    4ab0:	9c 21 00 1c 	l.addi r1,r1,28
    4ab4:	85 21 ff fc 	l.lwz r9,-4(r1)
    4ab8:	84 21 ff e4 	l.lwz r1,-28(r1)
    4abc:	84 41 ff e8 	l.lwz r2,-24(r1)
    4ac0:	85 c1 ff ec 	l.lwz r14,-20(r1)
    4ac4:	86 41 ff f0 	l.lwz r18,-16(r1)
    4ac8:	86 81 ff f4 	l.lwz r20,-12(r1)
    4acc:	44 00 48 00 	l.jr r9
    4ad0:	86 c1 ff f8 	l.lwz r22,-8(r1)
    4ad4:	a8 63 00 00 	l.ori r3,r3,0x0
    4ad8:	bc 23 00 00 	l.sfnei r3,0
    4adc:	0f ff ff f5 	l.bnf 4ab0 <__register_exitproc+0x7c>
    4ae0:	9d 60 ff ff 	l.addi r11,r0,-1
    4ae4:	07 ff ed 47 	l.jal 0 <_or1k_reset-0x100>
    4ae8:	9c 60 01 90 	l.addi r3,r0,400
    4aec:	bc 0b 00 00 	l.sfeqi r11,0
    4af0:	10 00 00 1f 	l.bf 4b6c <__register_exitproc+0x138>
    4af4:	a9 0b 00 00 	l.ori r8,r11,0x0
    4af8:	84 6e 01 48 	l.lwz r3,328(r14)
    4afc:	9c 80 00 00 	l.addi r4,r0,0
    4b00:	d4 0b 18 00 	l.sw 0(r11),r3
    4b04:	d4 0b 20 04 	l.sw 4(r11),r4
    4b08:	d4 0e 59 48 	l.sw 328(r14),r11
    4b0c:	d4 0b 21 88 	l.sw 392(r11),r4
    4b10:	d4 0b 21 8c 	l.sw 396(r11),r4
    4b14:	bc 36 00 00 	l.sfnei r22,0
    4b18:	9c a0 00 01 	l.addi r5,r0,1
    4b1c:	0f ff ff df 	l.bnf 4a98 <__register_exitproc+0x64>
    4b20:	a8 e4 00 00 	l.ori r7,r4,0x0
    4b24:	b9 67 00 02 	l.slli r11,r7,0x2
    4b28:	9c 80 00 01 	l.addi r4,r0,1
    4b2c:	bc 36 00 02 	l.sfnei r22,2
    4b30:	e0 68 58 00 	l.add r3,r8,r11
    4b34:	e0 84 38 08 	l.sll r4,r4,r7
    4b38:	d4 03 a0 88 	l.sw 136(r3),r20
    4b3c:	84 c8 01 88 	l.lwz r6,392(r8)
    4b40:	e0 c6 20 04 	l.or r6,r6,r4
    4b44:	d4 08 31 88 	l.sw 392(r8),r6
    4b48:	13 ff ff d4 	l.bf 4a98 <__register_exitproc+0x64>
    4b4c:	d4 03 91 08 	l.sw 264(r3),r18
    4b50:	84 68 01 8c 	l.lwz r3,396(r8)
    4b54:	e0 83 20 04 	l.or r4,r3,r4
    4b58:	03 ff ff d0 	l.j 4a98 <__register_exitproc+0x64>
    4b5c:	d4 08 21 8c 	l.sw 396(r8),r4
    4b60:	9d 0e 01 4c 	l.addi r8,r14,332
    4b64:	03 ff ff c6 	l.j 4a7c <__register_exitproc+0x48>
    4b68:	d4 0e 41 48 	l.sw 328(r14),r8
    4b6c:	03 ff ff d1 	l.j 4ab0 <__register_exitproc+0x7c>
    4b70:	9d 60 ff ff 	l.addi r11,r0,-1

00004b74 <__call_exitprocs>:
    4b74:	d7 e1 17 d8 	l.sw -40(r1),r2
    4b78:	18 40 00 01 	l.movhi r2,0x1
    4b7c:	d7 e1 f7 f8 	l.sw -8(r1),r30
    4b80:	a8 42 14 7c 	l.ori r2,r2,0x147c
    4b84:	d7 e1 97 e0 	l.sw -32(r1),r18
    4b88:	87 c2 00 00 	l.lwz r30,0(r2)
    4b8c:	d7 e1 d7 f0 	l.sw -16(r1),r26
    4b90:	d7 e1 e7 f4 	l.sw -12(r1),r28
    4b94:	d7 e1 4f fc 	l.sw -4(r1),r9
    4b98:	d7 e1 0f d4 	l.sw -44(r1),r1
    4b9c:	d7 e1 77 dc 	l.sw -36(r1),r14
    4ba0:	d7 e1 a7 e4 	l.sw -28(r1),r20
    4ba4:	d7 e1 b7 e8 	l.sw -24(r1),r22
    4ba8:	d7 e1 c7 ec 	l.sw -20(r1),r24
    4bac:	9c 5e 01 48 	l.addi r2,r30,328
    4bb0:	9c 21 ff d0 	l.addi r1,r1,-48
    4bb4:	1b 80 00 00 	l.movhi r28,0x0
    4bb8:	ab 43 00 00 	l.ori r26,r3,0x0
    4bbc:	aa 44 00 00 	l.ori r18,r4,0x0
    4bc0:	d4 01 10 00 	l.sw 0(r1),r2
    4bc4:	ab 9c 00 00 	l.ori r28,r28,0x0
    4bc8:	86 9e 01 48 	l.lwz r20,328(r30)
    4bcc:	bc 34 00 00 	l.sfnei r20,0
    4bd0:	0c 00 00 43 	l.bnf 4cdc <__call_exitprocs+0x168>
    4bd4:	86 c1 00 00 	l.lwz r22,0(r1)
    4bd8:	84 54 00 04 	l.lwz r2,4(r20)
    4bdc:	9d c2 ff ff 	l.addi r14,r2,-1
    4be0:	bd 6e 00 00 	l.sfgesi r14,0
    4be4:	0c 00 00 2f 	l.bnf 4ca0 <__call_exitprocs+0x12c>
    4be8:	bc 1c 00 00 	l.sfeqi r28,0
    4bec:	9c 42 00 01 	l.addi r2,r2,1
    4bf0:	b8 42 00 02 	l.slli r2,r2,0x2
    4bf4:	00 00 00 0a 	l.j 4c1c <__call_exitprocs+0xa8>
    4bf8:	e0 54 10 00 	l.add r2,r20,r2
    4bfc:	84 62 01 00 	l.lwz r3,256(r2)
    4c00:	e4 03 90 00 	l.sfeq r3,r18
    4c04:	10 00 00 09 	l.bf 4c28 <__call_exitprocs+0xb4>
    4c08:	15 00 00 00 	l.nop 0x0
    4c0c:	9d ce ff ff 	l.addi r14,r14,-1
    4c10:	bc 2e ff ff 	l.sfnei r14,-1
    4c14:	0c 00 00 22 	l.bnf 4c9c <__call_exitprocs+0x128>
    4c18:	9c 42 ff fc 	l.addi r2,r2,-4
    4c1c:	bc 12 00 00 	l.sfeqi r18,0
    4c20:	0f ff ff f7 	l.bnf 4bfc <__call_exitprocs+0x88>
    4c24:	15 00 00 00 	l.nop 0x0
    4c28:	84 74 00 04 	l.lwz r3,4(r20)
    4c2c:	9c 63 ff ff 	l.addi r3,r3,-1
    4c30:	e4 23 70 00 	l.sfne r3,r14
    4c34:	0c 00 00 41 	l.bnf 4d38 <__call_exitprocs+0x1c4>
    4c38:	84 a2 00 00 	l.lwz r5,0(r2)
    4c3c:	9c 60 00 00 	l.addi r3,r0,0
    4c40:	d4 02 18 00 	l.sw 0(r2),r3
    4c44:	bc 05 00 00 	l.sfeqi r5,0
    4c48:	13 ff ff f1 	l.bf 4c0c <__call_exitprocs+0x98>
    4c4c:	9c 60 00 01 	l.addi r3,r0,1
    4c50:	e0 83 70 08 	l.sll r4,r3,r14
    4c54:	84 74 01 88 	l.lwz r3,392(r20)
    4c58:	e0 64 18 03 	l.and r3,r4,r3
    4c5c:	bc 03 00 00 	l.sfeqi r3,0
    4c60:	0c 00 00 2c 	l.bnf 4d10 <__call_exitprocs+0x19c>
    4c64:	87 14 00 04 	l.lwz r24,4(r20)
    4c68:	48 00 28 00 	l.jalr r5
    4c6c:	15 00 00 00 	l.nop 0x0
    4c70:	84 74 00 04 	l.lwz r3,4(r20)
    4c74:	e4 23 c0 00 	l.sfne r3,r24
    4c78:	13 ff ff d4 	l.bf 4bc8 <__call_exitprocs+0x54>
    4c7c:	15 00 00 00 	l.nop 0x0
    4c80:	84 76 00 00 	l.lwz r3,0(r22)
    4c84:	e4 23 a0 00 	l.sfne r3,r20
    4c88:	13 ff ff d0 	l.bf 4bc8 <__call_exitprocs+0x54>
    4c8c:	9d ce ff ff 	l.addi r14,r14,-1
    4c90:	bc 2e ff ff 	l.sfnei r14,-1
    4c94:	13 ff ff e2 	l.bf 4c1c <__call_exitprocs+0xa8>
    4c98:	9c 42 ff fc 	l.addi r2,r2,-4
    4c9c:	bc 1c 00 00 	l.sfeqi r28,0
    4ca0:	10 00 00 0f 	l.bf 4cdc <__call_exitprocs+0x168>
    4ca4:	15 00 00 00 	l.nop 0x0
    4ca8:	84 54 00 04 	l.lwz r2,4(r20)
    4cac:	bc 22 00 00 	l.sfnei r2,0
    4cb0:	10 00 00 28 	l.bf 4d50 <__call_exitprocs+0x1dc>
    4cb4:	84 54 00 00 	l.lwz r2,0(r20)
    4cb8:	bc 02 00 00 	l.sfeqi r2,0
    4cbc:	10 00 00 25 	l.bf 4d50 <__call_exitprocs+0x1dc>
    4cc0:	a8 74 00 00 	l.ori r3,r20,0x0
    4cc4:	07 ff ec cf 	l.jal 0 <_or1k_reset-0x100>
    4cc8:	d4 16 10 00 	l.sw 0(r22),r2
    4ccc:	86 96 00 00 	l.lwz r20,0(r22)
    4cd0:	bc 34 00 00 	l.sfnei r20,0
    4cd4:	13 ff ff c1 	l.bf 4bd8 <__call_exitprocs+0x64>
    4cd8:	15 00 00 00 	l.nop 0x0
    4cdc:	9c 21 00 30 	l.addi r1,r1,48
    4ce0:	85 21 ff fc 	l.lwz r9,-4(r1)
    4ce4:	84 21 ff d4 	l.lwz r1,-44(r1)
    4ce8:	84 41 ff d8 	l.lwz r2,-40(r1)
    4cec:	85 c1 ff dc 	l.lwz r14,-36(r1)
    4cf0:	86 41 ff e0 	l.lwz r18,-32(r1)
    4cf4:	86 81 ff e4 	l.lwz r20,-28(r1)
    4cf8:	86 c1 ff e8 	l.lwz r22,-24(r1)
    4cfc:	87 01 ff ec 	l.lwz r24,-20(r1)
    4d00:	87 41 ff f0 	l.lwz r26,-16(r1)
    4d04:	87 81 ff f4 	l.lwz r28,-12(r1)
    4d08:	44 00 48 00 	l.jr r9
    4d0c:	87 c1 ff f8 	l.lwz r30,-8(r1)
    4d10:	84 74 01 8c 	l.lwz r3,396(r20)
    4d14:	e0 64 18 03 	l.and r3,r4,r3
    4d18:	bc 23 00 00 	l.sfnei r3,0
    4d1c:	10 00 00 09 	l.bf 4d40 <__call_exitprocs+0x1cc>
    4d20:	15 00 00 00 	l.nop 0x0
    4d24:	a8 7a 00 00 	l.ori r3,r26,0x0
    4d28:	48 00 28 00 	l.jalr r5
    4d2c:	84 82 00 80 	l.lwz r4,128(r2)
    4d30:	03 ff ff d1 	l.j 4c74 <__call_exitprocs+0x100>
    4d34:	84 74 00 04 	l.lwz r3,4(r20)
    4d38:	03 ff ff c3 	l.j 4c44 <__call_exitprocs+0xd0>
    4d3c:	d4 14 70 04 	l.sw 4(r20),r14
    4d40:	48 00 28 00 	l.jalr r5
    4d44:	84 62 00 80 	l.lwz r3,128(r2)
    4d48:	03 ff ff cb 	l.j 4c74 <__call_exitprocs+0x100>
    4d4c:	84 74 00 04 	l.lwz r3,4(r20)
    4d50:	aa d4 00 00 	l.ori r22,r20,0x0
    4d54:	03 ff ff df 	l.j 4cd0 <__call_exitprocs+0x15c>
    4d58:	aa 82 00 00 	l.ori r20,r2,0x0

00004d5c <quorem>:
    4d5c:	d7 e1 17 d8 	l.sw -40(r1),r2
    4d60:	84 a3 00 10 	l.lwz r5,16(r3)
    4d64:	84 44 00 10 	l.lwz r2,16(r4)
    4d68:	d7 e1 f7 f8 	l.sw -8(r1),r30
    4d6c:	d7 e1 4f fc 	l.sw -4(r1),r9
    4d70:	d7 e1 0f d4 	l.sw -44(r1),r1
    4d74:	d7 e1 77 dc 	l.sw -36(r1),r14
    4d78:	d7 e1 97 e0 	l.sw -32(r1),r18
    4d7c:	d7 e1 a7 e4 	l.sw -28(r1),r20
    4d80:	d7 e1 b7 e8 	l.sw -24(r1),r22
    4d84:	d7 e1 c7 ec 	l.sw -20(r1),r24
    4d88:	d7 e1 d7 f0 	l.sw -16(r1),r26
    4d8c:	d7 e1 e7 f4 	l.sw -12(r1),r28
    4d90:	e5 42 28 00 	l.sfgts r2,r5
    4d94:	9c 21 ff d4 	l.addi r1,r1,-44
    4d98:	10 00 00 7e 	l.bf 4f90 <quorem+0x234>
    4d9c:	9f c0 00 00 	l.addi r30,r0,0
    4da0:	9c 42 ff ff 	l.addi r2,r2,-1
    4da4:	9f 04 00 14 	l.addi r24,r4,20
    4da8:	bb 82 00 02 	l.slli r28,r2,0x2
    4dac:	9e 83 00 14 	l.addi r20,r3,20
    4db0:	ab 44 00 00 	l.ori r26,r4,0x0
    4db4:	e1 d8 e0 00 	l.add r14,r24,r28
    4db8:	e3 94 e0 00 	l.add r28,r20,r28
    4dbc:	84 8e 00 00 	l.lwz r4,0(r14)
    4dc0:	aa c3 00 00 	l.ori r22,r3,0x0
    4dc4:	9c 84 00 01 	l.addi r4,r4,1
    4dc8:	04 00 24 72 	l.jal df90 <__udivsi3>
    4dcc:	84 7c 00 00 	l.lwz r3,0(r28)
    4dd0:	e4 0b f0 00 	l.sfeq r11,r30
    4dd4:	10 00 00 38 	l.bf 4eb4 <quorem+0x158>
    4dd8:	aa 4b 00 00 	l.ori r18,r11,0x0
    4ddc:	a9 7e 00 00 	l.ori r11,r30,0x0
    4de0:	a9 14 00 00 	l.ori r8,r20,0x0
    4de4:	a8 f8 00 00 	l.ori r7,r24,0x0
    4de8:	a8 9e 00 00 	l.ori r4,r30,0x0
    4dec:	84 67 00 00 	l.lwz r3,0(r7)
    4df0:	84 c8 00 00 	l.lwz r6,0(r8)
    4df4:	a4 a3 ff ff 	l.andi r5,r3,0xffff
    4df8:	b8 63 00 50 	l.srli r3,r3,0x10
    4dfc:	e0 a5 93 06 	l.mul r5,r5,r18
    4e00:	e0 63 93 06 	l.mul r3,r3,r18
    4e04:	e0 ab 28 00 	l.add r5,r11,r5
    4e08:	a5 86 ff ff 	l.andi r12,r6,0xffff
    4e0c:	b9 65 00 50 	l.srli r11,r5,0x10
    4e10:	e0 8c 20 00 	l.add r4,r12,r4
    4e14:	a4 a5 ff ff 	l.andi r5,r5,0xffff
    4e18:	e1 6b 18 00 	l.add r11,r11,r3
    4e1c:	b8 c6 00 50 	l.srli r6,r6,0x10
    4e20:	e0 64 28 02 	l.sub r3,r4,r5
    4e24:	a4 ab ff ff 	l.andi r5,r11,0xffff
    4e28:	b8 83 00 90 	l.srai r4,r3,0x10
    4e2c:	e0 c6 28 02 	l.sub r6,r6,r5
    4e30:	a4 63 ff ff 	l.andi r3,r3,0xffff
    4e34:	e0 c6 20 00 	l.add r6,r6,r4
    4e38:	9c e7 00 04 	l.addi r7,r7,4
    4e3c:	b8 86 00 10 	l.slli r4,r6,0x10
    4e40:	e4 6e 38 00 	l.sfgeu r14,r7
    4e44:	b9 6b 00 50 	l.srli r11,r11,0x10
    4e48:	e0 64 18 04 	l.or r3,r4,r3
    4e4c:	9d 08 00 04 	l.addi r8,r8,4
    4e50:	d7 e8 1f fc 	l.sw -4(r8),r3
    4e54:	13 ff ff e6 	l.bf 4dec <quorem+0x90>
    4e58:	b8 86 00 90 	l.srai r4,r6,0x10
    4e5c:	84 7c 00 00 	l.lwz r3,0(r28)
    4e60:	bc 23 00 00 	l.sfnei r3,0
    4e64:	10 00 00 15 	l.bf 4eb8 <quorem+0x15c>
    4e68:	a8 76 00 00 	l.ori r3,r22,0x0
    4e6c:	9c 7c ff fc 	l.addi r3,r28,-4
    4e70:	e4 74 18 00 	l.sfgeu r20,r3
    4e74:	10 00 00 0f 	l.bf 4eb0 <quorem+0x154>
    4e78:	15 00 00 00 	l.nop 0x0
    4e7c:	84 9c ff fc 	l.lwz r4,-4(r28)
    4e80:	bc 24 00 00 	l.sfnei r4,0
    4e84:	0c 00 00 08 	l.bnf 4ea4 <quorem+0x148>
    4e88:	9c 63 ff fc 	l.addi r3,r3,-4
    4e8c:	00 00 00 0a 	l.j 4eb4 <quorem+0x158>
    4e90:	d4 16 10 10 	l.sw 16(r22),r2
    4e94:	84 83 00 00 	l.lwz r4,0(r3)
    4e98:	bc 04 00 00 	l.sfeqi r4,0
    4e9c:	0c 00 00 05 	l.bnf 4eb0 <quorem+0x154>
    4ea0:	9c 63 ff fc 	l.addi r3,r3,-4
    4ea4:	e4 74 18 00 	l.sfgeu r20,r3
    4ea8:	0f ff ff fb 	l.bnf 4e94 <quorem+0x138>
    4eac:	9c 42 ff ff 	l.addi r2,r2,-1
    4eb0:	d4 16 10 10 	l.sw 16(r22),r2
    4eb4:	a8 76 00 00 	l.ori r3,r22,0x0
    4eb8:	04 00 12 31 	l.jal 977c <__mcmp>
    4ebc:	a8 9a 00 00 	l.ori r4,r26,0x0
    4ec0:	bd 8b 00 00 	l.sfltsi r11,0
    4ec4:	10 00 00 32 	l.bf 4f8c <quorem+0x230>
    4ec8:	a8 f4 00 00 	l.ori r7,r20,0x0
    4ecc:	9e 52 00 01 	l.addi r18,r18,1
    4ed0:	9c a0 00 00 	l.addi r5,r0,0
    4ed4:	84 c7 00 00 	l.lwz r6,0(r7)
    4ed8:	84 78 00 00 	l.lwz r3,0(r24)
    4edc:	a4 86 ff ff 	l.andi r4,r6,0xffff
    4ee0:	a5 03 ff ff 	l.andi r8,r3,0xffff
    4ee4:	e0 a4 28 00 	l.add r5,r4,r5
    4ee8:	b8 63 00 50 	l.srli r3,r3,0x10
    4eec:	e0 85 40 02 	l.sub r4,r5,r8
    4ef0:	b8 c6 00 50 	l.srli r6,r6,0x10
    4ef4:	b8 a4 00 90 	l.srai r5,r4,0x10
    4ef8:	a4 84 ff ff 	l.andi r4,r4,0xffff
    4efc:	e0 c6 18 02 	l.sub r6,r6,r3
    4f00:	9f 18 00 04 	l.addi r24,r24,4
    4f04:	e0 c6 28 00 	l.add r6,r6,r5
    4f08:	9c e7 00 04 	l.addi r7,r7,4
    4f0c:	b8 66 00 10 	l.slli r3,r6,0x10
    4f10:	e4 6e c0 00 	l.sfgeu r14,r24
    4f14:	b8 a6 00 90 	l.srai r5,r6,0x10
    4f18:	e0 83 20 04 	l.or r4,r3,r4
    4f1c:	13 ff ff ee 	l.bf 4ed4 <quorem+0x178>
    4f20:	d7 e7 27 fc 	l.sw -4(r7),r4
    4f24:	b8 82 00 02 	l.slli r4,r2,0x2
    4f28:	e0 94 20 00 	l.add r4,r20,r4
    4f2c:	84 64 00 00 	l.lwz r3,0(r4)
    4f30:	bc 23 00 00 	l.sfnei r3,0
    4f34:	10 00 00 17 	l.bf 4f90 <quorem+0x234>
    4f38:	ab d2 00 00 	l.ori r30,r18,0x0
    4f3c:	9c 64 ff fc 	l.addi r3,r4,-4
    4f40:	e4 74 18 00 	l.sfgeu r20,r3
    4f44:	10 00 00 11 	l.bf 4f88 <quorem+0x22c>
    4f48:	15 00 00 00 	l.nop 0x0
    4f4c:	84 84 ff fc 	l.lwz r4,-4(r4)
    4f50:	bc 24 00 00 	l.sfnei r4,0
    4f54:	0c 00 00 0a 	l.bnf 4f7c <quorem+0x220>
    4f58:	9c 63 ff fc 	l.addi r3,r3,-4
    4f5c:	9c 63 00 04 	l.addi r3,r3,4
    4f60:	00 00 00 0c 	l.j 4f90 <quorem+0x234>
    4f64:	d4 16 10 10 	l.sw 16(r22),r2
    4f68:	84 83 00 00 	l.lwz r4,0(r3)
    4f6c:	bc 04 00 00 	l.sfeqi r4,0
    4f70:	0c 00 00 06 	l.bnf 4f88 <quorem+0x22c>
    4f74:	15 00 00 00 	l.nop 0x0
    4f78:	9c 63 ff fc 	l.addi r3,r3,-4
    4f7c:	e4 74 18 00 	l.sfgeu r20,r3
    4f80:	0f ff ff fa 	l.bnf 4f68 <quorem+0x20c>
    4f84:	9c 42 ff ff 	l.addi r2,r2,-1
    4f88:	d4 16 10 10 	l.sw 16(r22),r2
    4f8c:	ab d2 00 00 	l.ori r30,r18,0x0
    4f90:	9c 21 00 2c 	l.addi r1,r1,44
    4f94:	a9 7e 00 00 	l.ori r11,r30,0x0
    4f98:	85 21 ff fc 	l.lwz r9,-4(r1)
    4f9c:	84 21 ff d4 	l.lwz r1,-44(r1)
    4fa0:	84 41 ff d8 	l.lwz r2,-40(r1)
    4fa4:	85 c1 ff dc 	l.lwz r14,-36(r1)
    4fa8:	86 41 ff e0 	l.lwz r18,-32(r1)
    4fac:	86 81 ff e4 	l.lwz r20,-28(r1)
    4fb0:	86 c1 ff e8 	l.lwz r22,-24(r1)
    4fb4:	87 01 ff ec 	l.lwz r24,-20(r1)
    4fb8:	87 41 ff f0 	l.lwz r26,-16(r1)
    4fbc:	87 81 ff f4 	l.lwz r28,-12(r1)
    4fc0:	44 00 48 00 	l.jr r9
    4fc4:	87 c1 ff f8 	l.lwz r30,-8(r1)

00004fc8 <_dtoa_r>:
    4fc8:	d7 e1 17 d8 	l.sw -40(r1),r2
    4fcc:	d7 e1 97 e0 	l.sw -32(r1),r18
    4fd0:	d7 e1 a7 e4 	l.sw -28(r1),r20
    4fd4:	d7 e1 b7 e8 	l.sw -24(r1),r22
    4fd8:	d7 e1 c7 ec 	l.sw -20(r1),r24
    4fdc:	d7 e1 f7 f8 	l.sw -8(r1),r30
    4fe0:	d7 e1 4f fc 	l.sw -4(r1),r9
    4fe4:	d7 e1 0f d4 	l.sw -44(r1),r1
    4fe8:	d7 e1 77 dc 	l.sw -36(r1),r14
    4fec:	d7 e1 d7 f0 	l.sw -16(r1),r26
    4ff0:	d7 e1 e7 f4 	l.sw -12(r1),r28
    4ff4:	85 63 00 40 	l.lwz r11,64(r3)
    4ff8:	9c 21 ff 60 	l.addi r1,r1,-160
    4ffc:	bc 0b 00 00 	l.sfeqi r11,0
    5000:	d4 01 30 08 	l.sw 8(r1),r6
    5004:	d4 01 38 18 	l.sw 24(r1),r7
    5008:	d4 01 40 1c 	l.sw 28(r1),r8
    500c:	ab c3 00 00 	l.ori r30,r3,0x0
    5010:	aa c4 00 00 	l.ori r22,r4,0x0
    5014:	a8 45 00 00 	l.ori r2,r5,0x0
    5018:	87 01 00 a0 	l.lwz r24,160(r1)
    501c:	aa 84 00 00 	l.ori r20,r4,0x0
    5020:	10 00 00 0b 	l.bf 504c <_dtoa_r+0x84>
    5024:	aa 45 00 00 	l.ori r18,r5,0x0
    5028:	84 a3 00 44 	l.lwz r5,68(r3)
    502c:	9c 80 00 01 	l.addi r4,r0,1
    5030:	d4 0b 28 04 	l.sw 4(r11),r5
    5034:	e0 a4 28 08 	l.sll r5,r4,r5
    5038:	a8 8b 00 00 	l.ori r4,r11,0x0
    503c:	04 00 0f 56 	l.jal 8d94 <_Bfree>
    5040:	d4 0b 28 08 	l.sw 8(r11),r5
    5044:	9c 60 00 00 	l.addi r3,r0,0
    5048:	d4 1e 18 40 	l.sw 64(r30),r3
    504c:	bd 76 00 00 	l.sfgesi r22,0
    5050:	0c 00 00 47 	l.bnf 516c <_dtoa_r+0x1a4>
    5054:	a9 d6 00 00 	l.ori r14,r22,0x0
    5058:	9c a0 00 00 	l.addi r5,r0,0
    505c:	d4 18 28 00 	l.sw 0(r24),r5
    5060:	18 c0 7f f0 	l.movhi r6,0x7ff0
    5064:	e0 6e 30 03 	l.and r3,r14,r6
    5068:	e4 23 30 00 	l.sfne r3,r6
    506c:	0c 00 00 25 	l.bnf 5100 <_dtoa_r+0x138>
    5070:	18 80 00 01 	l.movhi r4,0x1
    5074:	a9 94 00 00 	l.ori r12,r20,0x0
    5078:	a9 a2 00 00 	l.ori r13,r2,0x0
    507c:	a8 84 16 5c 	l.ori r4,r4,0x165c
    5080:	84 a4 00 00 	l.lwz r5,0(r4)
    5084:	84 c4 00 04 	l.lwz r6,4(r4)
    5088:	e0 6c 00 04 	l.or r3,r12,r0
    508c:	e0 8d 00 04 	l.or r4,r13,r0
    5090:	04 00 2a 09 	l.jal f8b4 <__eqdf2>
    5094:	ab 82 00 00 	l.ori r28,r2,0x0
    5098:	bc 0b 00 00 	l.sfeqi r11,0
    509c:	0c 00 00 3b 	l.bnf 5188 <_dtoa_r+0x1c0>
    50a0:	84 61 00 1c 	l.lwz r3,28(r1)
    50a4:	84 41 00 a4 	l.lwz r2,164(r1)
    50a8:	bc 02 00 00 	l.sfeqi r2,0
    50ac:	9c 40 00 01 	l.addi r2,r0,1
    50b0:	19 60 00 01 	l.movhi r11,0x1
    50b4:	d4 03 10 00 	l.sw 0(r3),r2
    50b8:	10 00 00 05 	l.bf 50cc <_dtoa_r+0x104>
    50bc:	a9 6b 14 bb 	l.ori r11,r11,0x14bb
    50c0:	e0 4b 10 00 	l.add r2,r11,r2
    50c4:	84 81 00 a4 	l.lwz r4,164(r1)
    50c8:	d4 04 10 00 	l.sw 0(r4),r2
    50cc:	9c 21 00 a0 	l.addi r1,r1,160
    50d0:	85 21 ff fc 	l.lwz r9,-4(r1)
    50d4:	84 21 ff d4 	l.lwz r1,-44(r1)
    50d8:	84 41 ff d8 	l.lwz r2,-40(r1)
    50dc:	85 c1 ff dc 	l.lwz r14,-36(r1)
    50e0:	86 41 ff e0 	l.lwz r18,-32(r1)
    50e4:	86 81 ff e4 	l.lwz r20,-28(r1)
    50e8:	86 c1 ff e8 	l.lwz r22,-24(r1)
    50ec:	87 01 ff ec 	l.lwz r24,-20(r1)
    50f0:	87 41 ff f0 	l.lwz r26,-16(r1)
    50f4:	87 81 ff f4 	l.lwz r28,-12(r1)
    50f8:	44 00 48 00 	l.jr r9
    50fc:	87 c1 ff f8 	l.lwz r30,-8(r1)
    5100:	bc 22 00 00 	l.sfnei r2,0
    5104:	84 e1 00 1c 	l.lwz r7,28(r1)
    5108:	9c 40 27 0f 	l.addi r2,r0,9999
    510c:	19 60 00 01 	l.movhi r11,0x1
    5110:	d4 07 10 00 	l.sw 0(r7),r2
    5114:	10 00 00 0a 	l.bf 513c <_dtoa_r+0x174>
    5118:	a9 6b 16 55 	l.ori r11,r11,0x1655
    511c:	18 40 00 0f 	l.movhi r2,0xf
    5120:	a8 42 ff ff 	l.ori r2,r2,0xffff
    5124:	e1 ce 10 03 	l.and r14,r14,r2
    5128:	bc 2e 00 00 	l.sfnei r14,0
    512c:	10 00 00 05 	l.bf 5140 <_dtoa_r+0x178>
    5130:	84 41 00 a4 	l.lwz r2,164(r1)
    5134:	19 60 00 01 	l.movhi r11,0x1
    5138:	a9 6b 16 4c 	l.ori r11,r11,0x164c
    513c:	84 41 00 a4 	l.lwz r2,164(r1)
    5140:	bc 02 00 00 	l.sfeqi r2,0
    5144:	13 ff ff e2 	l.bf 50cc <_dtoa_r+0x104>
    5148:	15 00 00 00 	l.nop 0x0
    514c:	90 4b 00 03 	l.lbs r2,3(r11)
    5150:	bc 02 00 00 	l.sfeqi r2,0
    5154:	0c 00 00 03 	l.bnf 5160 <_dtoa_r+0x198>
    5158:	9c 4b 00 08 	l.addi r2,r11,8
    515c:	9c 4b 00 03 	l.addi r2,r11,3
    5160:	84 61 00 a4 	l.lwz r3,164(r1)
    5164:	03 ff ff da 	l.j 50cc <_dtoa_r+0x104>
    5168:	d4 03 10 00 	l.sw 0(r3),r2
    516c:	18 80 7f ff 	l.movhi r4,0x7fff
    5170:	9c 60 00 01 	l.addi r3,r0,1
    5174:	a8 84 ff ff 	l.ori r4,r4,0xffff
    5178:	d4 18 18 00 	l.sw 0(r24),r3
    517c:	e2 96 20 03 	l.and r20,r22,r4
    5180:	03 ff ff b8 	l.j 5060 <_dtoa_r+0x98>
    5184:	a9 d4 00 00 	l.ori r14,r20,0x0
    5188:	a8 94 00 00 	l.ori r4,r20,0x0
    518c:	a8 7e 00 00 	l.ori r3,r30,0x0
    5190:	a8 a2 00 00 	l.ori r5,r2,0x0
    5194:	9c c1 00 70 	l.addi r6,r1,112
    5198:	9c e1 00 6c 	l.addi r7,r1,108
    519c:	04 00 12 90 	l.jal 9bdc <__d2b>
    51a0:	ba ce 00 54 	l.srli r22,r14,0x14
    51a4:	bc 16 00 00 	l.sfeqi r22,0
    51a8:	0c 00 01 a8 	l.bnf 5848 <_dtoa_r+0x880>
    51ac:	d4 01 58 2c 	l.sw 44(r1),r11
    51b0:	86 c1 00 6c 	l.lwz r22,108(r1)
    51b4:	84 a1 00 70 	l.lwz r5,112(r1)
    51b8:	e0 b6 28 00 	l.add r5,r22,r5
    51bc:	bd 85 fb ef 	l.sfltsi r5,-1041
    51c0:	10 00 02 a7 	l.bf 5c5c <_dtoa_r+0xc94>
    51c4:	9c 85 04 12 	l.addi r4,r5,1042
    51c8:	9c 60 fc 0e 	l.addi r3,r0,-1010
    51cc:	e0 63 28 02 	l.sub r3,r3,r5
    51d0:	e0 82 20 48 	l.srl r4,r2,r4
    51d4:	e0 6e 18 08 	l.sll r3,r14,r3
    51d8:	e0 63 20 04 	l.or r3,r3,r4
    51dc:	04 00 30 31 	l.jal 112a0 <__floatunsidf>
    51e0:	9d c5 ff ff 	l.addi r14,r5,-1
    51e4:	18 60 fe 10 	l.movhi r3,0xfe10
    51e8:	9c 80 00 01 	l.addi r4,r0,1
    51ec:	e1 6b 18 00 	l.add r11,r11,r3
    51f0:	ab 8c 00 00 	l.ori r28,r12,0x0
    51f4:	d4 01 20 48 	l.sw 72(r1),r4
    51f8:	18 60 00 01 	l.movhi r3,0x1
    51fc:	a9 bc 00 00 	l.ori r13,r28,0x0
    5200:	a9 8b 00 00 	l.ori r12,r11,0x0
    5204:	a8 63 16 64 	l.ori r3,r3,0x1664
    5208:	84 a3 00 00 	l.lwz r5,0(r3)
    520c:	84 c3 00 04 	l.lwz r6,4(r3)
    5210:	e0 6c 00 04 	l.or r3,r12,r0
    5214:	e0 8d 00 04 	l.or r4,r13,r0
    5218:	04 00 2c d7 	l.jal 10574 <__subdf3>
    521c:	15 00 00 00 	l.nop 0x0
    5220:	18 a0 00 01 	l.movhi r5,0x1
    5224:	e0 6b 00 04 	l.or r3,r11,r0
    5228:	e0 8c 00 04 	l.or r4,r12,r0
    522c:	a8 a5 16 6c 	l.ori r5,r5,0x166c
    5230:	84 c5 00 04 	l.lwz r6,4(r5)
    5234:	84 a5 00 00 	l.lwz r5,0(r5)
    5238:	04 00 2a d4 	l.jal fd88 <__muldf3>
    523c:	15 00 00 00 	l.nop 0x0
    5240:	18 a0 00 01 	l.movhi r5,0x1
    5244:	e0 6b 00 04 	l.or r3,r11,r0
    5248:	e0 8c 00 04 	l.or r4,r12,r0
    524c:	a8 a5 16 74 	l.ori r5,r5,0x1674
    5250:	84 c5 00 04 	l.lwz r6,4(r5)
    5254:	84 a5 00 00 	l.lwz r5,0(r5)
    5258:	04 00 23 c5 	l.jal e16c <__adddf3>
    525c:	15 00 00 00 	l.nop 0x0
    5260:	d4 01 58 10 	l.sw 16(r1),r11
    5264:	d4 01 60 14 	l.sw 20(r1),r12
    5268:	04 00 2f d3 	l.jal 111b4 <__floatsidf>
    526c:	a8 6e 00 00 	l.ori r3,r14,0x0
    5270:	18 a0 00 01 	l.movhi r5,0x1
    5274:	e0 6b 00 04 	l.or r3,r11,r0
    5278:	e0 8c 00 04 	l.or r4,r12,r0
    527c:	a8 a5 16 7c 	l.ori r5,r5,0x167c
    5280:	84 c5 00 04 	l.lwz r6,4(r5)
    5284:	84 a5 00 00 	l.lwz r5,0(r5)
    5288:	04 00 2a c0 	l.jal fd88 <__muldf3>
    528c:	15 00 00 00 	l.nop 0x0
    5290:	84 61 00 10 	l.lwz r3,16(r1)
    5294:	84 81 00 14 	l.lwz r4,20(r1)
    5298:	e0 ab 00 04 	l.or r5,r11,r0
    529c:	e0 cc 00 04 	l.or r6,r12,r0
    52a0:	04 00 23 b3 	l.jal e16c <__adddf3>
    52a4:	15 00 00 00 	l.nop 0x0
    52a8:	e0 6b 00 04 	l.or r3,r11,r0
    52ac:	e0 8c 00 04 	l.or r4,r12,r0
    52b0:	d4 01 58 10 	l.sw 16(r1),r11
    52b4:	d4 01 60 14 	l.sw 20(r1),r12
    52b8:	04 00 2f 95 	l.jal 1110c <__fixdfsi>
    52bc:	15 00 00 00 	l.nop 0x0
    52c0:	18 e0 00 01 	l.movhi r7,0x1
    52c4:	a8 e7 16 5c 	l.ori r7,r7,0x165c
    52c8:	84 61 00 10 	l.lwz r3,16(r1)
    52cc:	84 81 00 14 	l.lwz r4,20(r1)
    52d0:	84 a7 00 00 	l.lwz r5,0(r7)
    52d4:	84 c7 00 04 	l.lwz r6,4(r7)
    52d8:	04 00 2a 34 	l.jal fba8 <__ledf2>
    52dc:	ab 0b 00 00 	l.ori r24,r11,0x0
    52e0:	bd 8b 00 00 	l.sfltsi r11,0
    52e4:	10 00 02 4f 	l.bf 5c20 <_dtoa_r+0xc58>
    52e8:	9c 60 00 01 	l.addi r3,r0,1
    52ec:	bc 58 00 16 	l.sfgtui r24,22
    52f0:	10 00 00 14 	l.bf 5340 <_dtoa_r+0x378>
    52f4:	d4 01 18 30 	l.sw 48(r1),r3
    52f8:	18 a0 00 01 	l.movhi r5,0x1
    52fc:	b8 78 00 03 	l.slli r3,r24,0x3
    5300:	a8 a5 17 20 	l.ori r5,r5,0x1720
    5304:	a8 e2 00 00 	l.ori r7,r2,0x0
    5308:	e0 63 28 00 	l.add r3,r3,r5
    530c:	a8 d4 00 00 	l.ori r6,r20,0x0
    5310:	84 83 00 04 	l.lwz r4,4(r3)
    5314:	84 63 00 00 	l.lwz r3,0(r3)
    5318:	e0 a6 00 04 	l.or r5,r6,r0
    531c:	e0 c7 00 04 	l.or r6,r7,r0
    5320:	04 00 29 a7 	l.jal f9bc <__gedf2>
    5324:	15 00 00 00 	l.nop 0x0
    5328:	bd 4b 00 00 	l.sfgtsi r11,0
    532c:	0c 00 02 4a 	l.bnf 5c54 <_dtoa_r+0xc8c>
    5330:	9c e0 00 00 	l.addi r7,r0,0
    5334:	9c c0 00 00 	l.addi r6,r0,0
    5338:	9f 18 ff ff 	l.addi r24,r24,-1
    533c:	d4 01 30 30 	l.sw 48(r1),r6
    5340:	e2 d6 70 02 	l.sub r22,r22,r14
    5344:	9c 60 00 00 	l.addi r3,r0,0
    5348:	9f 56 ff ff 	l.addi r26,r22,-1
    534c:	e5 7a 18 00 	l.sfges r26,r3
    5350:	0c 00 02 30 	l.bnf 5c10 <_dtoa_r+0xc48>
    5354:	d4 01 18 28 	l.sw 40(r1),r3
    5358:	bd 98 00 00 	l.sfltsi r24,0
    535c:	10 00 02 25 	l.bf 5bf0 <_dtoa_r+0xc28>
    5360:	9c 80 00 00 	l.addi r4,r0,0
    5364:	e3 5a c0 00 	l.add r26,r26,r24
    5368:	d4 01 c0 40 	l.sw 64(r1),r24
    536c:	d4 01 20 38 	l.sw 56(r1),r4
    5370:	84 61 00 08 	l.lwz r3,8(r1)
    5374:	bc 43 00 09 	l.sfgtui r3,9
    5378:	10 00 01 3e 	l.bf 5870 <_dtoa_r+0x8a8>
    537c:	bd a3 00 05 	l.sflesi r3,5
    5380:	10 00 00 06 	l.bf 5398 <_dtoa_r+0x3d0>
    5384:	9c 60 00 01 	l.addi r3,r0,1
    5388:	84 81 00 08 	l.lwz r4,8(r1)
    538c:	9c 60 00 00 	l.addi r3,r0,0
    5390:	9c 84 ff fc 	l.addi r4,r4,-4
    5394:	d4 01 20 08 	l.sw 8(r1),r4
    5398:	84 81 00 08 	l.lwz r4,8(r1)
    539c:	bc 04 00 03 	l.sfeqi r4,3
    53a0:	10 00 05 13 	l.bf 67ec <_dtoa_r+0x1824>
    53a4:	bd 44 00 03 	l.sfgtsi r4,3
    53a8:	0c 00 03 b6 	l.bnf 6280 <_dtoa_r+0x12b8>
    53ac:	84 c1 00 08 	l.lwz r6,8(r1)
    53b0:	bc 06 00 04 	l.sfeqi r6,4
    53b4:	10 00 02 50 	l.bf 5cf4 <_dtoa_r+0xd2c>
    53b8:	9c e0 00 01 	l.addi r7,r0,1
    53bc:	bc 06 00 05 	l.sfeqi r6,5
    53c0:	0c 00 03 b4 	l.bnf 6290 <_dtoa_r+0x12c8>
    53c4:	d4 01 38 34 	l.sw 52(r1),r7
    53c8:	84 a1 00 18 	l.lwz r5,24(r1)
    53cc:	e0 a5 c0 00 	l.add r5,r5,r24
    53d0:	9f 85 00 01 	l.addi r28,r5,1
    53d4:	bd 5c 00 00 	l.sfgtsi r28,0
    53d8:	0c 00 05 08 	l.bnf 67f8 <_dtoa_r+0x1830>
    53dc:	d4 01 28 3c 	l.sw 60(r1),r5
    53e0:	bc bc 00 0e 	l.sfleui r28,14
    53e4:	a8 fc 00 00 	l.ori r7,r28,0x0
    53e8:	10 00 00 03 	l.bf 53f4 <_dtoa_r+0x42c>
    53ec:	9d c0 00 01 	l.addi r14,r0,1
    53f0:	9d c0 00 00 	l.addi r14,r0,0
    53f4:	e1 c3 70 03 	l.and r14,r3,r14
    53f8:	9c c0 00 00 	l.addi r6,r0,0
    53fc:	bc a7 00 17 	l.sfleui r7,23
    5400:	d4 1e 30 44 	l.sw 68(r30),r6
    5404:	10 00 00 0b 	l.bf 5430 <_dtoa_r+0x468>
    5408:	a8 86 00 00 	l.ori r4,r6,0x0
    540c:	9c a0 00 01 	l.addi r5,r0,1
    5410:	9c 60 00 04 	l.addi r3,r0,4
    5414:	e0 63 18 00 	l.add r3,r3,r3
    5418:	a8 85 00 00 	l.ori r4,r5,0x0
    541c:	9c c3 00 14 	l.addi r6,r3,20
    5420:	e4 a6 38 00 	l.sfleu r6,r7
    5424:	13 ff ff fc 	l.bf 5414 <_dtoa_r+0x44c>
    5428:	9c a5 00 01 	l.addi r5,r5,1
    542c:	d4 1e 20 44 	l.sw 68(r30),r4
    5430:	04 00 0e 29 	l.jal 8cd4 <_Balloc>
    5434:	a8 7e 00 00 	l.ori r3,r30,0x0
    5438:	bc 0e 00 00 	l.sfeqi r14,0
    543c:	d4 01 58 10 	l.sw 16(r1),r11
    5440:	10 00 01 1c 	l.bf 58b0 <_dtoa_r+0x8e8>
    5444:	d4 1e 58 40 	l.sw 64(r30),r11
    5448:	bd b8 00 00 	l.sflesi r24,0
    544c:	d4 01 a0 4c 	l.sw 76(r1),r20
    5450:	10 00 03 ac 	l.bf 6300 <_dtoa_r+0x1338>
    5454:	d4 01 10 50 	l.sw 80(r1),r2
    5458:	a4 78 00 0f 	l.andi r3,r24,0xf
    545c:	b9 d8 00 84 	l.srai r14,r24,0x4
    5460:	18 e0 00 01 	l.movhi r7,0x1
    5464:	b8 63 00 03 	l.slli r3,r3,0x3
    5468:	a8 e7 17 20 	l.ori r7,r7,0x1720
    546c:	a4 8e 00 10 	l.andi r4,r14,0x10
    5470:	e0 63 38 00 	l.add r3,r3,r7
    5474:	bc 04 00 00 	l.sfeqi r4,0
    5478:	84 83 00 00 	l.lwz r4,0(r3)
    547c:	84 a3 00 04 	l.lwz r5,4(r3)
    5480:	d4 01 20 00 	l.sw 0(r1),r4
    5484:	d4 01 28 04 	l.sw 4(r1),r5
    5488:	10 00 03 79 	l.bf 626c <_dtoa_r+0x12a4>
    548c:	a8 94 00 00 	l.ori r4,r20,0x0
    5490:	a9 a2 00 00 	l.ori r13,r2,0x0
    5494:	18 40 00 01 	l.movhi r2,0x1
    5498:	a9 94 00 00 	l.ori r12,r20,0x0
    549c:	a8 42 16 f8 	l.ori r2,r2,0x16f8
    54a0:	a5 ce 00 0f 	l.andi r14,r14,0xf
    54a4:	84 a2 00 20 	l.lwz r5,32(r2)
    54a8:	84 c2 00 24 	l.lwz r6,36(r2)
    54ac:	e0 6c 00 04 	l.or r3,r12,r0
    54b0:	e0 8d 00 04 	l.or r4,r13,r0
    54b4:	04 00 26 0f 	l.jal ecf0 <__divdf3>
    54b8:	9e 40 00 03 	l.addi r18,r0,3
    54bc:	d4 01 58 20 	l.sw 32(r1),r11
    54c0:	d4 01 60 24 	l.sw 36(r1),r12
    54c4:	bc 0e 00 00 	l.sfeqi r14,0
    54c8:	10 00 00 14 	l.bf 5518 <_dtoa_r+0x550>
    54cc:	18 40 00 01 	l.movhi r2,0x1
    54d0:	85 61 00 00 	l.lwz r11,0(r1)
    54d4:	85 81 00 04 	l.lwz r12,4(r1)
    54d8:	a8 42 16 f8 	l.ori r2,r2,0x16f8
    54dc:	a4 8e 00 01 	l.andi r4,r14,0x1
    54e0:	bc 04 00 00 	l.sfeqi r4,0
    54e4:	e0 6b 00 04 	l.or r3,r11,r0
    54e8:	e0 8c 00 04 	l.or r4,r12,r0
    54ec:	10 00 00 06 	l.bf 5504 <_dtoa_r+0x53c>
    54f0:	b9 ce 00 81 	l.srai r14,r14,0x1
    54f4:	84 a2 00 00 	l.lwz r5,0(r2)
    54f8:	84 c2 00 04 	l.lwz r6,4(r2)
    54fc:	04 00 2a 23 	l.jal fd88 <__muldf3>
    5500:	9e 52 00 01 	l.addi r18,r18,1
    5504:	bc 2e 00 00 	l.sfnei r14,0
    5508:	13 ff ff f5 	l.bf 54dc <_dtoa_r+0x514>
    550c:	9c 42 00 08 	l.addi r2,r2,8
    5510:	d4 01 58 00 	l.sw 0(r1),r11
    5514:	d4 01 60 04 	l.sw 4(r1),r12
    5518:	84 a1 00 00 	l.lwz r5,0(r1)
    551c:	84 c1 00 04 	l.lwz r6,4(r1)
    5520:	84 61 00 20 	l.lwz r3,32(r1)
    5524:	84 81 00 24 	l.lwz r4,36(r1)
    5528:	04 00 25 f2 	l.jal ecf0 <__divdf3>
    552c:	15 00 00 00 	l.nop 0x0
    5530:	d4 01 58 00 	l.sw 0(r1),r11
    5534:	d4 01 60 04 	l.sw 4(r1),r12
    5538:	84 41 00 30 	l.lwz r2,48(r1)
    553c:	bc 02 00 00 	l.sfeqi r2,0
    5540:	10 00 00 0d 	l.bf 5574 <_dtoa_r+0x5ac>
    5544:	a8 72 00 00 	l.ori r3,r18,0x0
    5548:	18 40 00 01 	l.movhi r2,0x1
    554c:	84 61 00 00 	l.lwz r3,0(r1)
    5550:	84 81 00 04 	l.lwz r4,4(r1)
    5554:	a8 42 16 84 	l.ori r2,r2,0x1684
    5558:	84 a2 00 00 	l.lwz r5,0(r2)
    555c:	84 c2 00 04 	l.lwz r6,4(r2)
    5560:	04 00 29 92 	l.jal fba8 <__ledf2>
    5564:	15 00 00 00 	l.nop 0x0
    5568:	bd 8b 00 00 	l.sfltsi r11,0
    556c:	10 00 04 c3 	l.bf 6878 <_dtoa_r+0x18b0>
    5570:	a8 72 00 00 	l.ori r3,r18,0x0
    5574:	04 00 2f 10 	l.jal 111b4 <__floatsidf>
    5578:	18 40 00 01 	l.movhi r2,0x1
    557c:	e0 6b 00 04 	l.or r3,r11,r0
    5580:	e0 8c 00 04 	l.or r4,r12,r0
    5584:	84 a1 00 00 	l.lwz r5,0(r1)
    5588:	84 c1 00 04 	l.lwz r6,4(r1)
    558c:	04 00 29 ff 	l.jal fd88 <__muldf3>
    5590:	a8 42 16 94 	l.ori r2,r2,0x1694
    5594:	84 a2 00 00 	l.lwz r5,0(r2)
    5598:	84 c2 00 04 	l.lwz r6,4(r2)
    559c:	e0 6b 00 04 	l.or r3,r11,r0
    55a0:	e0 8c 00 04 	l.or r4,r12,r0
    55a4:	04 00 22 f2 	l.jal e16c <__adddf3>
    55a8:	15 00 00 00 	l.nop 0x0
    55ac:	18 a0 fc c0 	l.movhi r5,0xfcc0
    55b0:	bc 3c 00 00 	l.sfnei r28,0
    55b4:	a9 cc 00 00 	l.ori r14,r12,0x0
    55b8:	0c 00 02 a4 	l.bnf 6048 <_dtoa_r+0x1080>
    55bc:	e0 4b 28 00 	l.add r2,r11,r5
    55c0:	d4 01 c0 54 	l.sw 84(r1),r24
    55c4:	d4 01 e0 44 	l.sw 68(r1),r28
    55c8:	84 e1 00 34 	l.lwz r7,52(r1)
    55cc:	bc 07 00 00 	l.sfeqi r7,0
    55d0:	10 00 03 79 	l.bf 63b4 <_dtoa_r+0x13ec>
    55d4:	84 61 00 44 	l.lwz r3,68(r1)
    55d8:	9c a3 ff ff 	l.addi r5,r3,-1
    55dc:	18 e0 00 01 	l.movhi r7,0x1
    55e0:	b8 a5 00 03 	l.slli r5,r5,0x3
    55e4:	a8 e7 17 20 	l.ori r7,r7,0x1720
    55e8:	18 60 00 01 	l.movhi r3,0x1
    55ec:	e0 a5 38 00 	l.add r5,r5,r7
    55f0:	84 c1 00 10 	l.lwz r6,16(r1)
    55f4:	a8 63 16 a4 	l.ori r3,r3,0x16a4
    55f8:	9e c6 00 01 	l.addi r22,r6,1
    55fc:	84 83 00 04 	l.lwz r4,4(r3)
    5600:	84 63 00 00 	l.lwz r3,0(r3)
    5604:	84 c5 00 04 	l.lwz r6,4(r5)
    5608:	84 a5 00 00 	l.lwz r5,0(r5)
    560c:	04 00 25 b9 	l.jal ecf0 <__divdf3>
    5610:	15 00 00 00 	l.nop 0x0
    5614:	a8 ee 00 00 	l.ori r7,r14,0x0
    5618:	a8 c2 00 00 	l.ori r6,r2,0x0
    561c:	e0 6b 00 04 	l.or r3,r11,r0
    5620:	e0 8c 00 04 	l.or r4,r12,r0
    5624:	e0 a6 00 04 	l.or r5,r6,r0
    5628:	e0 c7 00 04 	l.or r6,r7,r0
    562c:	04 00 2b d2 	l.jal 10574 <__subdf3>
    5630:	15 00 00 00 	l.nop 0x0
    5634:	84 61 00 00 	l.lwz r3,0(r1)
    5638:	84 81 00 04 	l.lwz r4,4(r1)
    563c:	d4 01 58 20 	l.sw 32(r1),r11
    5640:	d4 01 60 24 	l.sw 36(r1),r12
    5644:	04 00 2e b2 	l.jal 1110c <__fixdfsi>
    5648:	15 00 00 00 	l.nop 0x0
    564c:	a8 4b 00 00 	l.ori r2,r11,0x0
    5650:	a8 6b 00 00 	l.ori r3,r11,0x0
    5654:	04 00 2e d8 	l.jal 111b4 <__floatsidf>
    5658:	9c 42 00 30 	l.addi r2,r2,48
    565c:	b8 42 00 18 	l.slli r2,r2,0x18
    5660:	84 61 00 00 	l.lwz r3,0(r1)
    5664:	84 81 00 04 	l.lwz r4,4(r1)
    5668:	e0 ab 00 04 	l.or r5,r11,r0
    566c:	e0 cc 00 04 	l.or r6,r12,r0
    5670:	04 00 2b c1 	l.jal 10574 <__subdf3>
    5674:	b8 42 00 98 	l.srai r2,r2,0x18
    5678:	84 e1 00 10 	l.lwz r7,16(r1)
    567c:	d4 01 58 00 	l.sw 0(r1),r11
    5680:	d4 01 60 04 	l.sw 4(r1),r12
    5684:	d8 07 10 00 	l.sb 0(r7),r2
    5688:	84 61 00 20 	l.lwz r3,32(r1)
    568c:	84 81 00 24 	l.lwz r4,36(r1)
    5690:	e0 ab 00 04 	l.or r5,r11,r0
    5694:	e0 cc 00 04 	l.or r6,r12,r0
    5698:	04 00 28 c9 	l.jal f9bc <__gedf2>
    569c:	15 00 00 00 	l.nop 0x0
    56a0:	bd 4b 00 00 	l.sfgtsi r11,0
    56a4:	10 00 00 67 	l.bf 5840 <_dtoa_r+0x878>
    56a8:	18 e0 00 01 	l.movhi r7,0x1
    56ac:	84 a1 00 00 	l.lwz r5,0(r1)
    56b0:	84 c1 00 04 	l.lwz r6,4(r1)
    56b4:	a8 e7 16 84 	l.ori r7,r7,0x1684
    56b8:	84 67 00 00 	l.lwz r3,0(r7)
    56bc:	84 87 00 04 	l.lwz r4,4(r7)
    56c0:	04 00 2b ad 	l.jal 10574 <__subdf3>
    56c4:	15 00 00 00 	l.nop 0x0
    56c8:	84 61 00 20 	l.lwz r3,32(r1)
    56cc:	84 81 00 24 	l.lwz r4,36(r1)
    56d0:	e0 ab 00 04 	l.or r5,r11,r0
    56d4:	e0 cc 00 04 	l.or r6,r12,r0
    56d8:	04 00 28 b9 	l.jal f9bc <__gedf2>
    56dc:	15 00 00 00 	l.nop 0x0
    56e0:	bd 4b 00 00 	l.sfgtsi r11,0
    56e4:	10 00 02 2b 	l.bf 5f90 <_dtoa_r+0xfc8>
    56e8:	9c 76 ff ff 	l.addi r3,r22,-1
    56ec:	84 41 00 44 	l.lwz r2,68(r1)
    56f0:	bd a2 00 01 	l.sflesi r2,1
    56f4:	10 00 03 00 	l.bf 62f4 <_dtoa_r+0x132c>
    56f8:	19 c0 00 01 	l.movhi r14,0x1
    56fc:	84 61 00 10 	l.lwz r3,16(r1)
    5700:	a9 ce 16 8c 	l.ori r14,r14,0x168c
    5704:	e0 63 10 00 	l.add r3,r3,r2
    5708:	86 8e 00 00 	l.lwz r20,0(r14)
    570c:	85 ce 00 04 	l.lwz r14,4(r14)
    5710:	d4 01 c0 60 	l.sw 96(r1),r24
    5714:	d4 01 d0 64 	l.sw 100(r1),r26
    5718:	d4 01 e0 68 	l.sw 104(r1),r28
    571c:	aa 56 00 00 	l.ori r18,r22,0x0
    5720:	d4 01 18 44 	l.sw 68(r1),r3
    5724:	d4 01 a0 58 	l.sw 88(r1),r20
    5728:	d4 01 70 5c 	l.sw 92(r1),r14
    572c:	ab 83 00 00 	l.ori r28,r3,0x0
    5730:	ab 54 00 00 	l.ori r26,r20,0x0
    5734:	00 00 00 12 	l.j 577c <_dtoa_r+0x7b4>
    5738:	ab 0e 00 00 	l.ori r24,r14,0x0
    573c:	a8 e7 16 84 	l.ori r7,r7,0x1684
    5740:	84 67 00 00 	l.lwz r3,0(r7)
    5744:	84 87 00 04 	l.lwz r4,4(r7)
    5748:	04 00 2b 8b 	l.jal 10574 <__subdf3>
    574c:	15 00 00 00 	l.nop 0x0
    5750:	84 a1 00 20 	l.lwz r5,32(r1)
    5754:	84 c1 00 24 	l.lwz r6,36(r1)
    5758:	e0 6b 00 04 	l.or r3,r11,r0
    575c:	e0 8c 00 04 	l.or r4,r12,r0
    5760:	04 00 29 12 	l.jal fba8 <__ledf2>
    5764:	15 00 00 00 	l.nop 0x0
    5768:	bd 8b 00 00 	l.sfltsi r11,0
    576c:	10 00 02 08 	l.bf 5f8c <_dtoa_r+0xfc4>
    5770:	e4 16 e0 00 	l.sfeq r22,r28
    5774:	10 00 02 dd 	l.bf 62e8 <_dtoa_r+0x1320>
    5778:	15 00 00 00 	l.nop 0x0
    577c:	a8 ee 00 00 	l.ori r7,r14,0x0
    5780:	a8 d4 00 00 	l.ori r6,r20,0x0
    5784:	84 61 00 20 	l.lwz r3,32(r1)
    5788:	84 81 00 24 	l.lwz r4,36(r1)
    578c:	e0 a6 00 04 	l.or r5,r6,r0
    5790:	e0 c7 00 04 	l.or r6,r7,r0
    5794:	04 00 29 7d 	l.jal fd88 <__muldf3>
    5798:	9e d6 00 01 	l.addi r22,r22,1
    579c:	a8 f8 00 00 	l.ori r7,r24,0x0
    57a0:	a8 da 00 00 	l.ori r6,r26,0x0
    57a4:	84 61 00 00 	l.lwz r3,0(r1)
    57a8:	84 81 00 04 	l.lwz r4,4(r1)
    57ac:	e0 a6 00 04 	l.or r5,r6,r0
    57b0:	e0 c7 00 04 	l.or r6,r7,r0
    57b4:	d4 01 58 20 	l.sw 32(r1),r11
    57b8:	d4 01 60 24 	l.sw 36(r1),r12
    57bc:	04 00 29 73 	l.jal fd88 <__muldf3>
    57c0:	15 00 00 00 	l.nop 0x0
    57c4:	e0 6b 00 04 	l.or r3,r11,r0
    57c8:	e0 8c 00 04 	l.or r4,r12,r0
    57cc:	d4 01 58 00 	l.sw 0(r1),r11
    57d0:	d4 01 60 04 	l.sw 4(r1),r12
    57d4:	04 00 2e 4e 	l.jal 1110c <__fixdfsi>
    57d8:	15 00 00 00 	l.nop 0x0
    57dc:	a8 4b 00 00 	l.ori r2,r11,0x0
    57e0:	a8 6b 00 00 	l.ori r3,r11,0x0
    57e4:	04 00 2e 74 	l.jal 111b4 <__floatsidf>
    57e8:	9c 42 00 30 	l.addi r2,r2,48
    57ec:	b8 42 00 18 	l.slli r2,r2,0x18
    57f0:	84 61 00 00 	l.lwz r3,0(r1)
    57f4:	84 81 00 04 	l.lwz r4,4(r1)
    57f8:	e0 ab 00 04 	l.or r5,r11,r0
    57fc:	e0 cc 00 04 	l.or r6,r12,r0
    5800:	04 00 2b 5d 	l.jal 10574 <__subdf3>
    5804:	b8 42 00 98 	l.srai r2,r2,0x18
    5808:	84 a1 00 20 	l.lwz r5,32(r1)
    580c:	84 c1 00 24 	l.lwz r6,36(r1)
    5810:	d8 12 10 00 	l.sb 0(r18),r2
    5814:	d4 01 58 00 	l.sw 0(r1),r11
    5818:	d4 01 60 04 	l.sw 4(r1),r12
    581c:	e0 6b 00 04 	l.or r3,r11,r0
    5820:	e0 8c 00 04 	l.or r4,r12,r0
    5824:	04 00 28 e1 	l.jal fba8 <__ledf2>
    5828:	aa 56 00 00 	l.ori r18,r22,0x0
    582c:	bd 8b 00 00 	l.sfltsi r11,0
    5830:	84 a1 00 00 	l.lwz r5,0(r1)
    5834:	84 c1 00 04 	l.lwz r6,4(r1)
    5838:	0f ff ff c1 	l.bnf 573c <_dtoa_r+0x774>
    583c:	18 e0 00 01 	l.movhi r7,0x1
    5840:	00 00 00 dd 	l.j 5bb4 <_dtoa_r+0xbec>
    5844:	87 01 00 54 	l.lwz r24,84(r1)
    5848:	18 a0 00 0f 	l.movhi r5,0xf
    584c:	18 c0 3f f0 	l.movhi r6,0x3ff0
    5850:	a8 a5 ff ff 	l.ori r5,r5,0xffff
    5854:	9c e0 00 00 	l.addi r7,r0,0
    5858:	e1 74 28 03 	l.and r11,r20,r5
    585c:	9d d6 fc 01 	l.addi r14,r22,-1023
    5860:	e1 6b 30 04 	l.or r11,r11,r6
    5864:	86 c1 00 6c 	l.lwz r22,108(r1)
    5868:	03 ff fe 64 	l.j 51f8 <_dtoa_r+0x230>
    586c:	d4 01 38 48 	l.sw 72(r1),r7
    5870:	9c 40 00 00 	l.addi r2,r0,0
    5874:	a8 7e 00 00 	l.ori r3,r30,0x0
    5878:	d4 1e 10 44 	l.sw 68(r30),r2
    587c:	a8 82 00 00 	l.ori r4,r2,0x0
    5880:	9c 40 ff ff 	l.addi r2,r0,-1
    5884:	d4 01 10 3c 	l.sw 60(r1),r2
    5888:	04 00 0d 13 	l.jal 8cd4 <_Balloc>
    588c:	9c 40 00 00 	l.addi r2,r0,0
    5890:	d4 01 10 18 	l.sw 24(r1),r2
    5894:	9c 40 00 01 	l.addi r2,r0,1
    5898:	d4 01 58 10 	l.sw 16(r1),r11
    589c:	d4 01 10 34 	l.sw 52(r1),r2
    58a0:	84 41 00 18 	l.lwz r2,24(r1)
    58a4:	d4 1e 58 40 	l.sw 64(r30),r11
    58a8:	87 81 00 3c 	l.lwz r28,60(r1)
    58ac:	d4 01 10 08 	l.sw 8(r1),r2
    58b0:	bd b8 00 0e 	l.sflesi r24,14
    58b4:	84 61 00 70 	l.lwz r3,112(r1)
    58b8:	10 00 00 03 	l.bf 58c4 <_dtoa_r+0x8fc>
    58bc:	9c 40 00 01 	l.addi r2,r0,1
    58c0:	9c 40 00 00 	l.addi r2,r0,0
    58c4:	a4 42 00 ff 	l.andi r2,r2,0xff
    58c8:	bc 02 00 00 	l.sfeqi r2,0
    58cc:	10 00 00 2c 	l.bf 597c <_dtoa_r+0x9b4>
    58d0:	bd 83 00 00 	l.sfltsi r3,0
    58d4:	10 00 00 2a 	l.bf 597c <_dtoa_r+0x9b4>
    58d8:	15 00 00 00 	l.nop 0x0
    58dc:	18 80 00 01 	l.movhi r4,0x1
    58e0:	b8 78 00 03 	l.slli r3,r24,0x3
    58e4:	a8 84 17 20 	l.ori r4,r4,0x1720
    58e8:	bd 5c 00 00 	l.sfgtsi r28,0
    58ec:	e0 63 20 00 	l.add r3,r3,r4
    58f0:	84 a3 00 00 	l.lwz r5,0(r3)
    58f4:	84 c3 00 04 	l.lwz r6,4(r3)
    58f8:	d4 01 28 00 	l.sw 0(r1),r5
    58fc:	d4 01 30 04 	l.sw 4(r1),r6
    5900:	10 00 01 0c 	l.bf 5d30 <_dtoa_r+0xd68>
    5904:	9c 5c ff ff 	l.addi r2,r28,-1
    5908:	84 c1 00 18 	l.lwz r6,24(r1)
    590c:	bd 86 00 00 	l.sfltsi r6,0
    5910:	0c 00 01 08 	l.bnf 5d30 <_dtoa_r+0xd68>
    5914:	bc 3c 00 00 	l.sfnei r28,0
    5918:	10 00 01 ed 	l.bf 60cc <_dtoa_r+0x1104>
    591c:	15 00 00 00 	l.nop 0x0
    5920:	18 40 00 01 	l.movhi r2,0x1
    5924:	84 61 00 00 	l.lwz r3,0(r1)
    5928:	84 81 00 04 	l.lwz r4,4(r1)
    592c:	a8 42 16 9c 	l.ori r2,r2,0x169c
    5930:	84 a2 00 00 	l.lwz r5,0(r2)
    5934:	84 c2 00 04 	l.lwz r6,4(r2)
    5938:	04 00 29 14 	l.jal fd88 <__muldf3>
    593c:	a9 dc 00 00 	l.ori r14,r28,0x0
    5940:	a8 f2 00 00 	l.ori r7,r18,0x0
    5944:	a8 d4 00 00 	l.ori r6,r20,0x0
    5948:	e0 6b 00 04 	l.or r3,r11,r0
    594c:	e0 8c 00 04 	l.or r4,r12,r0
    5950:	e0 a6 00 04 	l.or r5,r6,r0
    5954:	e0 c7 00 04 	l.or r6,r7,r0
    5958:	04 00 28 19 	l.jal f9bc <__gedf2>
    595c:	a8 5c 00 00 	l.ori r2,r28,0x0
    5960:	bd 6b 00 00 	l.sfgesi r11,0
    5964:	0c 00 00 87 	l.bnf 5b80 <_dtoa_r+0xbb8>
    5968:	84 a1 00 10 	l.lwz r5,16(r1)
    596c:	84 81 00 18 	l.lwz r4,24(r1)
    5970:	86 c1 00 10 	l.lwz r22,16(r1)
    5974:	00 00 00 87 	l.j 5b90 <_dtoa_r+0xbc8>
    5978:	af 04 ff ff 	l.xori r24,r4,-1
    597c:	84 41 00 34 	l.lwz r2,52(r1)
    5980:	bc 02 00 00 	l.sfeqi r2,0
    5984:	0c 00 00 c0 	l.bnf 5c84 <_dtoa_r+0xcbc>
    5988:	84 41 00 08 	l.lwz r2,8(r1)
    598c:	85 c1 00 38 	l.lwz r14,56(r1)
    5990:	86 c1 00 28 	l.lwz r22,40(r1)
    5994:	84 41 00 34 	l.lwz r2,52(r1)
    5998:	bd ba 00 00 	l.sflesi r26,0
    599c:	10 00 00 0c 	l.bf 59cc <_dtoa_r+0xa04>
    59a0:	bd b6 00 00 	l.sflesi r22,0
    59a4:	10 00 00 0a 	l.bf 59cc <_dtoa_r+0xa04>
    59a8:	e5 ba b0 00 	l.sfles r26,r22
    59ac:	10 00 00 03 	l.bf 59b8 <_dtoa_r+0x9f0>
    59b0:	a8 7a 00 00 	l.ori r3,r26,0x0
    59b4:	a8 76 00 00 	l.ori r3,r22,0x0
    59b8:	84 c1 00 28 	l.lwz r6,40(r1)
    59bc:	e2 d6 18 02 	l.sub r22,r22,r3
    59c0:	e0 c6 18 02 	l.sub r6,r6,r3
    59c4:	e3 5a 18 02 	l.sub r26,r26,r3
    59c8:	d4 01 30 28 	l.sw 40(r1),r6
    59cc:	84 e1 00 38 	l.lwz r7,56(r1)
    59d0:	bd a7 00 00 	l.sflesi r7,0
    59d4:	10 00 00 18 	l.bf 5a34 <_dtoa_r+0xa6c>
    59d8:	84 61 00 34 	l.lwz r3,52(r1)
    59dc:	bc 03 00 00 	l.sfeqi r3,0
    59e0:	10 00 03 94 	l.bf 6830 <_dtoa_r+0x1868>
    59e4:	bd ae 00 00 	l.sflesi r14,0
    59e8:	10 00 00 0e 	l.bf 5a20 <_dtoa_r+0xa58>
    59ec:	a8 82 00 00 	l.ori r4,r2,0x0
    59f0:	a8 7e 00 00 	l.ori r3,r30,0x0
    59f4:	04 00 0e 9e 	l.jal 946c <__pow5mult>
    59f8:	a8 ae 00 00 	l.ori r5,r14,0x0
    59fc:	a8 7e 00 00 	l.ori r3,r30,0x0
    5a00:	a8 8b 00 00 	l.ori r4,r11,0x0
    5a04:	84 a1 00 2c 	l.lwz r5,44(r1)
    5a08:	04 00 0e 07 	l.jal 9224 <__multiply>
    5a0c:	a8 4b 00 00 	l.ori r2,r11,0x0
    5a10:	84 81 00 2c 	l.lwz r4,44(r1)
    5a14:	a8 7e 00 00 	l.ori r3,r30,0x0
    5a18:	04 00 0c df 	l.jal 8d94 <_Bfree>
    5a1c:	d4 01 58 2c 	l.sw 44(r1),r11
    5a20:	84 81 00 38 	l.lwz r4,56(r1)
    5a24:	e0 a4 70 02 	l.sub r5,r4,r14
    5a28:	bc 05 00 00 	l.sfeqi r5,0
    5a2c:	0c 00 03 ba 	l.bnf 6914 <_dtoa_r+0x194c>
    5a30:	a8 7e 00 00 	l.ori r3,r30,0x0
    5a34:	a8 7e 00 00 	l.ori r3,r30,0x0
    5a38:	04 00 0d ec 	l.jal 91e8 <__i2b>
    5a3c:	9c 80 00 01 	l.addi r4,r0,1
    5a40:	84 a1 00 40 	l.lwz r5,64(r1)
    5a44:	bd a5 00 00 	l.sflesi r5,0
    5a48:	10 00 01 64 	l.bf 5fd8 <_dtoa_r+0x1010>
    5a4c:	a9 cb 00 00 	l.ori r14,r11,0x0
    5a50:	a8 7e 00 00 	l.ori r3,r30,0x0
    5a54:	04 00 0e 86 	l.jal 946c <__pow5mult>
    5a58:	a8 8b 00 00 	l.ori r4,r11,0x0
    5a5c:	84 c1 00 08 	l.lwz r6,8(r1)
    5a60:	bd a6 00 01 	l.sflesi r6,1
    5a64:	10 00 03 c9 	l.bf 6988 <_dtoa_r+0x19c0>
    5a68:	a9 cb 00 00 	l.ori r14,r11,0x0
    5a6c:	9c e0 00 00 	l.addi r7,r0,0
    5a70:	d4 01 38 00 	l.sw 0(r1),r7
    5a74:	84 6e 00 10 	l.lwz r3,16(r14)
    5a78:	9c 63 00 04 	l.addi r3,r3,4
    5a7c:	b8 63 00 02 	l.slli r3,r3,0x2
    5a80:	e0 6e 18 00 	l.add r3,r14,r3
    5a84:	04 00 0d 67 	l.jal 9020 <__hi0bits>
    5a88:	84 63 00 00 	l.lwz r3,0(r3)
    5a8c:	9c 60 00 20 	l.addi r3,r0,32
    5a90:	e1 63 58 02 	l.sub r11,r3,r11
    5a94:	e0 6b d0 00 	l.add r3,r11,r26
    5a98:	a4 63 00 1f 	l.andi r3,r3,0x1f
    5a9c:	bc 03 00 00 	l.sfeqi r3,0
    5aa0:	10 00 01 ec 	l.bf 6250 <_dtoa_r+0x1288>
    5aa4:	9c 80 00 20 	l.addi r4,r0,32
    5aa8:	e0 84 18 02 	l.sub r4,r4,r3
    5aac:	bd a4 00 04 	l.sflesi r4,4
    5ab0:	10 00 04 3c 	l.bf 6ba0 <_dtoa_r+0x1bd8>
    5ab4:	84 c1 00 28 	l.lwz r6,40(r1)
    5ab8:	9c 80 00 1c 	l.addi r4,r0,28
    5abc:	e0 64 18 02 	l.sub r3,r4,r3
    5ac0:	e0 c6 18 00 	l.add r6,r6,r3
    5ac4:	e2 d6 18 00 	l.add r22,r22,r3
    5ac8:	d4 01 30 28 	l.sw 40(r1),r6
    5acc:	e3 5a 18 00 	l.add r26,r26,r3
    5ad0:	84 61 00 28 	l.lwz r3,40(r1)
    5ad4:	bd a3 00 00 	l.sflesi r3,0
    5ad8:	10 00 00 06 	l.bf 5af0 <_dtoa_r+0xb28>
    5adc:	a8 7e 00 00 	l.ori r3,r30,0x0
    5ae0:	84 81 00 2c 	l.lwz r4,44(r1)
    5ae4:	04 00 0e c3 	l.jal 95f0 <__lshift>
    5ae8:	84 a1 00 28 	l.lwz r5,40(r1)
    5aec:	d4 01 58 2c 	l.sw 44(r1),r11
    5af0:	bd ba 00 00 	l.sflesi r26,0
    5af4:	10 00 00 06 	l.bf 5b0c <_dtoa_r+0xb44>
    5af8:	a8 8e 00 00 	l.ori r4,r14,0x0
    5afc:	a8 7e 00 00 	l.ori r3,r30,0x0
    5b00:	04 00 0e bc 	l.jal 95f0 <__lshift>
    5b04:	a8 ba 00 00 	l.ori r5,r26,0x0
    5b08:	a9 cb 00 00 	l.ori r14,r11,0x0
    5b0c:	84 81 00 30 	l.lwz r4,48(r1)
    5b10:	bc 04 00 00 	l.sfeqi r4,0
    5b14:	0c 00 02 84 	l.bnf 6524 <_dtoa_r+0x155c>
    5b18:	84 61 00 08 	l.lwz r3,8(r1)
    5b1c:	bd 43 00 02 	l.sfgtsi r3,2
    5b20:	10 00 00 03 	l.bf 5b2c <_dtoa_r+0xb64>
    5b24:	9c 60 00 01 	l.addi r3,r0,1
    5b28:	9c 60 00 00 	l.addi r3,r0,0
    5b2c:	a4 63 00 ff 	l.andi r3,r3,0xff
    5b30:	bc 03 00 00 	l.sfeqi r3,0
    5b34:	10 00 01 69 	l.bf 60d8 <_dtoa_r+0x1110>
    5b38:	bd 5c 00 00 	l.sfgtsi r28,0
    5b3c:	10 00 01 68 	l.bf 60dc <_dtoa_r+0x1114>
    5b40:	84 e1 00 34 	l.lwz r7,52(r1)
    5b44:	bc 3c 00 00 	l.sfnei r28,0
    5b48:	13 ff ff 89 	l.bf 596c <_dtoa_r+0x9a4>
    5b4c:	9c a0 00 05 	l.addi r5,r0,5
    5b50:	a8 8e 00 00 	l.ori r4,r14,0x0
    5b54:	a8 dc 00 00 	l.ori r6,r28,0x0
    5b58:	04 00 0c 9d 	l.jal 8dcc <__multadd>
    5b5c:	a8 7e 00 00 	l.ori r3,r30,0x0
    5b60:	84 61 00 2c 	l.lwz r3,44(r1)
    5b64:	a8 8b 00 00 	l.ori r4,r11,0x0
    5b68:	04 00 0f 05 	l.jal 977c <__mcmp>
    5b6c:	a9 cb 00 00 	l.ori r14,r11,0x0
    5b70:	bd 4b 00 00 	l.sfgtsi r11,0
    5b74:	0f ff ff 7f 	l.bnf 5970 <_dtoa_r+0x9a8>
    5b78:	84 81 00 18 	l.lwz r4,24(r1)
    5b7c:	84 a1 00 10 	l.lwz r5,16(r1)
    5b80:	9c c0 00 31 	l.addi r6,r0,49
    5b84:	9e c5 00 01 	l.addi r22,r5,1
    5b88:	d8 05 30 00 	l.sb 0(r5),r6
    5b8c:	9f 18 00 01 	l.addi r24,r24,1
    5b90:	a8 7e 00 00 	l.ori r3,r30,0x0
    5b94:	04 00 0c 80 	l.jal 8d94 <_Bfree>
    5b98:	a8 8e 00 00 	l.ori r4,r14,0x0
    5b9c:	bc 22 00 00 	l.sfnei r2,0
    5ba0:	0c 00 00 06 	l.bnf 5bb8 <_dtoa_r+0xbf0>
    5ba4:	a8 7e 00 00 	l.ori r3,r30,0x0
    5ba8:	a8 7e 00 00 	l.ori r3,r30,0x0
    5bac:	04 00 0c 7a 	l.jal 8d94 <_Bfree>
    5bb0:	a8 82 00 00 	l.ori r4,r2,0x0
    5bb4:	a8 7e 00 00 	l.ori r3,r30,0x0
    5bb8:	84 81 00 2c 	l.lwz r4,44(r1)
    5bbc:	04 00 0c 76 	l.jal 8d94 <_Bfree>
    5bc0:	9c 58 00 01 	l.addi r2,r24,1
    5bc4:	9c e0 00 00 	l.addi r7,r0,0
    5bc8:	84 61 00 1c 	l.lwz r3,28(r1)
    5bcc:	d8 16 38 00 	l.sb 0(r22),r7
    5bd0:	d4 03 10 00 	l.sw 0(r3),r2
    5bd4:	84 41 00 a4 	l.lwz r2,164(r1)
    5bd8:	bc 02 00 00 	l.sfeqi r2,0
    5bdc:	10 00 01 c1 	l.bf 62e0 <_dtoa_r+0x1318>
    5be0:	15 00 00 00 	l.nop 0x0
    5be4:	d4 02 b0 00 	l.sw 0(r2),r22
    5be8:	03 ff fd 39 	l.j 50cc <_dtoa_r+0x104>
    5bec:	85 61 00 10 	l.lwz r11,16(r1)
    5bf0:	84 a1 00 28 	l.lwz r5,40(r1)
    5bf4:	e0 c0 c0 02 	l.sub r6,r0,r24
    5bf8:	e0 a5 c0 02 	l.sub r5,r5,r24
    5bfc:	9c e0 00 00 	l.addi r7,r0,0
    5c00:	d4 01 28 28 	l.sw 40(r1),r5
    5c04:	d4 01 30 38 	l.sw 56(r1),r6
    5c08:	03 ff fd da 	l.j 5370 <_dtoa_r+0x3a8>
    5c0c:	d4 01 38 40 	l.sw 64(r1),r7
    5c10:	e3 40 d0 02 	l.sub r26,r0,r26
    5c14:	d4 01 d0 28 	l.sw 40(r1),r26
    5c18:	03 ff fd d0 	l.j 5358 <_dtoa_r+0x390>
    5c1c:	ab 43 00 00 	l.ori r26,r3,0x0
    5c20:	04 00 2d 65 	l.jal 111b4 <__floatsidf>
    5c24:	a8 78 00 00 	l.ori r3,r24,0x0
    5c28:	84 a1 00 10 	l.lwz r5,16(r1)
    5c2c:	84 c1 00 14 	l.lwz r6,20(r1)
    5c30:	e0 6b 00 04 	l.or r3,r11,r0
    5c34:	e0 8c 00 04 	l.or r4,r12,r0
    5c38:	04 00 27 1f 	l.jal f8b4 <__eqdf2>
    5c3c:	15 00 00 00 	l.nop 0x0
    5c40:	bc 2b 00 00 	l.sfnei r11,0
    5c44:	0f ff fd aa 	l.bnf 52ec <_dtoa_r+0x324>
    5c48:	9c 60 00 01 	l.addi r3,r0,1
    5c4c:	03 ff fd a8 	l.j 52ec <_dtoa_r+0x324>
    5c50:	9f 18 ff ff 	l.addi r24,r24,-1
    5c54:	03 ff fd bb 	l.j 5340 <_dtoa_r+0x378>
    5c58:	d4 01 38 30 	l.sw 48(r1),r7
    5c5c:	9c 60 fb ee 	l.addi r3,r0,-1042
    5c60:	e0 63 28 02 	l.sub r3,r3,r5
    5c64:	03 ff fd 5e 	l.j 51dc <_dtoa_r+0x214>
    5c68:	e0 62 18 08 	l.sll r3,r2,r3
    5c6c:	9c 40 00 01 	l.addi r2,r0,1
    5c70:	d4 01 e0 3c 	l.sw 60(r1),r28
    5c74:	d4 01 10 34 	l.sw 52(r1),r2
    5c78:	9c 40 00 00 	l.addi r2,r0,0
    5c7c:	d4 01 10 18 	l.sw 24(r1),r2
    5c80:	84 41 00 08 	l.lwz r2,8(r1)
    5c84:	bd 42 00 01 	l.sfgtsi r2,1
    5c88:	0c 00 03 4a 	l.bnf 69b0 <_dtoa_r+0x19e8>
    5c8c:	9c 5c ff ff 	l.addi r2,r28,-1
    5c90:	84 61 00 38 	l.lwz r3,56(r1)
    5c94:	e5 83 10 00 	l.sflts r3,r2
    5c98:	0c 00 00 09 	l.bnf 5cbc <_dtoa_r+0xcf4>
    5c9c:	e1 c3 10 02 	l.sub r14,r3,r2
    5ca0:	84 81 00 38 	l.lwz r4,56(r1)
    5ca4:	84 a1 00 40 	l.lwz r5,64(r1)
    5ca8:	e0 62 20 02 	l.sub r3,r2,r4
    5cac:	9d c0 00 00 	l.addi r14,r0,0
    5cb0:	e0 a5 18 00 	l.add r5,r5,r3
    5cb4:	d4 01 10 38 	l.sw 56(r1),r2
    5cb8:	d4 01 28 40 	l.sw 64(r1),r5
    5cbc:	bd 7c 00 00 	l.sfgesi r28,0
    5cc0:	0c 00 03 44 	l.bnf 69d0 <_dtoa_r+0x1a08>
    5cc4:	15 00 00 00 	l.nop 0x0
    5cc8:	86 c1 00 28 	l.lwz r22,40(r1)
    5ccc:	a8 5c 00 00 	l.ori r2,r28,0x0
    5cd0:	84 a1 00 28 	l.lwz r5,40(r1)
    5cd4:	a8 7e 00 00 	l.ori r3,r30,0x0
    5cd8:	e0 a5 10 00 	l.add r5,r5,r2
    5cdc:	9c 80 00 01 	l.addi r4,r0,1
    5ce0:	d4 01 28 28 	l.sw 40(r1),r5
    5ce4:	04 00 0d 41 	l.jal 91e8 <__i2b>
    5ce8:	e3 5a 10 00 	l.add r26,r26,r2
    5cec:	03 ff ff 2b 	l.j 5998 <_dtoa_r+0x9d0>
    5cf0:	a8 4b 00 00 	l.ori r2,r11,0x0
    5cf4:	9c a0 00 01 	l.addi r5,r0,1
    5cf8:	d4 01 28 34 	l.sw 52(r1),r5
    5cfc:	84 c1 00 18 	l.lwz r6,24(r1)
    5d00:	bd a6 00 00 	l.sflesi r6,0
    5d04:	10 00 02 c6 	l.bf 681c <_dtoa_r+0x1854>
    5d08:	bc a6 00 0e 	l.sfleui r6,14
    5d0c:	a8 e6 00 00 	l.ori r7,r6,0x0
    5d10:	10 00 00 03 	l.bf 5d1c <_dtoa_r+0xd54>
    5d14:	9d c0 00 01 	l.addi r14,r0,1
    5d18:	9d c0 00 00 	l.addi r14,r0,0
    5d1c:	e1 c3 70 03 	l.and r14,r3,r14
    5d20:	84 61 00 18 	l.lwz r3,24(r1)
    5d24:	d4 01 18 3c 	l.sw 60(r1),r3
    5d28:	03 ff fd b4 	l.j 53f8 <_dtoa_r+0x430>
    5d2c:	ab 83 00 00 	l.ori r28,r3,0x0
    5d30:	a9 b2 00 00 	l.ori r13,r18,0x0
    5d34:	a9 94 00 00 	l.ori r12,r20,0x0
    5d38:	84 e1 00 10 	l.lwz r7,16(r1)
    5d3c:	e0 6c 00 04 	l.or r3,r12,r0
    5d40:	e0 8d 00 04 	l.or r4,r13,r0
    5d44:	84 a1 00 00 	l.lwz r5,0(r1)
    5d48:	84 c1 00 04 	l.lwz r6,4(r1)
    5d4c:	04 00 23 e9 	l.jal ecf0 <__divdf3>
    5d50:	9e c7 00 01 	l.addi r22,r7,1
    5d54:	e0 6b 00 04 	l.or r3,r11,r0
    5d58:	e0 8c 00 04 	l.or r4,r12,r0
    5d5c:	04 00 2c ec 	l.jal 1110c <__fixdfsi>
    5d60:	a9 d4 00 00 	l.ori r14,r20,0x0
    5d64:	a8 6b 00 00 	l.ori r3,r11,0x0
    5d68:	04 00 2d 13 	l.jal 111b4 <__floatsidf>
    5d6c:	ab 4b 00 00 	l.ori r26,r11,0x0
    5d70:	84 a1 00 00 	l.lwz r5,0(r1)
    5d74:	84 c1 00 04 	l.lwz r6,4(r1)
    5d78:	e0 6b 00 04 	l.or r3,r11,r0
    5d7c:	e0 8c 00 04 	l.or r4,r12,r0
    5d80:	04 00 28 02 	l.jal fd88 <__muldf3>
    5d84:	15 00 00 00 	l.nop 0x0
    5d88:	a9 f2 00 00 	l.ori r15,r18,0x0
    5d8c:	e0 ab 00 04 	l.or r5,r11,r0
    5d90:	e0 cc 00 04 	l.or r6,r12,r0
    5d94:	e0 6e 00 04 	l.or r3,r14,r0
    5d98:	e0 8f 00 04 	l.or r4,r15,r0
    5d9c:	04 00 29 f6 	l.jal 10574 <__subdf3>
    5da0:	15 00 00 00 	l.nop 0x0
    5da4:	9c ba 00 30 	l.addi r5,r26,48
    5da8:	84 c1 00 10 	l.lwz r6,16(r1)
    5dac:	a8 8b 00 00 	l.ori r4,r11,0x0
    5db0:	bc 1c 00 01 	l.sfeqi r28,1
    5db4:	d8 06 28 00 	l.sb 0(r6),r5
    5db8:	a8 6c 00 00 	l.ori r3,r12,0x0
    5dbc:	10 00 00 50 	l.bf 5efc <_dtoa_r+0xf34>
    5dc0:	a9 64 00 00 	l.ori r11,r4,0x0
    5dc4:	19 c0 00 01 	l.movhi r14,0x1
    5dc8:	aa 63 00 00 	l.ori r19,r3,0x0
    5dcc:	aa 44 00 00 	l.ori r18,r4,0x0
    5dd0:	a9 ce 16 8c 	l.ori r14,r14,0x168c
    5dd4:	e0 72 00 04 	l.or r3,r18,r0
    5dd8:	e0 93 00 04 	l.or r4,r19,r0
    5ddc:	84 ae 00 00 	l.lwz r5,0(r14)
    5de0:	84 ce 00 04 	l.lwz r6,4(r14)
    5de4:	04 00 27 e9 	l.jal fd88 <__muldf3>
    5de8:	15 00 00 00 	l.nop 0x0
    5dec:	18 e0 00 01 	l.movhi r7,0x1
    5df0:	d4 01 58 08 	l.sw 8(r1),r11
    5df4:	d4 01 60 0c 	l.sw 12(r1),r12
    5df8:	a8 e7 16 5c 	l.ori r7,r7,0x165c
    5dfc:	e0 6b 00 04 	l.or r3,r11,r0
    5e00:	e0 8c 00 04 	l.or r4,r12,r0
    5e04:	84 a7 00 00 	l.lwz r5,0(r7)
    5e08:	84 c7 00 04 	l.lwz r6,4(r7)
    5e0c:	04 00 26 aa 	l.jal f8b4 <__eqdf2>
    5e10:	15 00 00 00 	l.nop 0x0
    5e14:	bc 0b 00 00 	l.sfeqi r11,0
    5e18:	13 ff ff 67 	l.bf 5bb4 <_dtoa_r+0xbec>
    5e1c:	84 61 00 10 	l.lwz r3,16(r1)
    5e20:	aa 56 00 00 	l.ori r18,r22,0x0
    5e24:	00 00 00 13 	l.j 5e70 <_dtoa_r+0xea8>
    5e28:	e0 43 10 00 	l.add r2,r3,r2
    5e2c:	84 ae 00 00 	l.lwz r5,0(r14)
    5e30:	84 ce 00 04 	l.lwz r6,4(r14)
    5e34:	04 00 27 d5 	l.jal fd88 <__muldf3>
    5e38:	aa 56 00 00 	l.ori r18,r22,0x0
    5e3c:	18 e0 00 01 	l.movhi r7,0x1
    5e40:	d4 01 58 08 	l.sw 8(r1),r11
    5e44:	d4 01 60 0c 	l.sw 12(r1),r12
    5e48:	a8 e7 16 5c 	l.ori r7,r7,0x165c
    5e4c:	e0 6b 00 04 	l.or r3,r11,r0
    5e50:	e0 8c 00 04 	l.or r4,r12,r0
    5e54:	84 a7 00 00 	l.lwz r5,0(r7)
    5e58:	84 c7 00 04 	l.lwz r6,4(r7)
    5e5c:	04 00 26 96 	l.jal f8b4 <__eqdf2>
    5e60:	15 00 00 00 	l.nop 0x0
    5e64:	bc 0b 00 00 	l.sfeqi r11,0
    5e68:	13 ff ff 54 	l.bf 5bb8 <_dtoa_r+0xbf0>
    5e6c:	a8 7e 00 00 	l.ori r3,r30,0x0
    5e70:	84 61 00 08 	l.lwz r3,8(r1)
    5e74:	84 81 00 0c 	l.lwz r4,12(r1)
    5e78:	84 a1 00 00 	l.lwz r5,0(r1)
    5e7c:	84 c1 00 04 	l.lwz r6,4(r1)
    5e80:	04 00 23 9c 	l.jal ecf0 <__divdf3>
    5e84:	9e d6 00 01 	l.addi r22,r22,1
    5e88:	e0 6b 00 04 	l.or r3,r11,r0
    5e8c:	e0 8c 00 04 	l.or r4,r12,r0
    5e90:	04 00 2c 9f 	l.jal 1110c <__fixdfsi>
    5e94:	15 00 00 00 	l.nop 0x0
    5e98:	a8 6b 00 00 	l.ori r3,r11,0x0
    5e9c:	04 00 2c c6 	l.jal 111b4 <__floatsidf>
    5ea0:	ab 4b 00 00 	l.ori r26,r11,0x0
    5ea4:	84 a1 00 00 	l.lwz r5,0(r1)
    5ea8:	84 c1 00 04 	l.lwz r6,4(r1)
    5eac:	e0 6b 00 04 	l.or r3,r11,r0
    5eb0:	e0 8c 00 04 	l.or r4,r12,r0
    5eb4:	04 00 27 b5 	l.jal fd88 <__muldf3>
    5eb8:	15 00 00 00 	l.nop 0x0
    5ebc:	84 61 00 08 	l.lwz r3,8(r1)
    5ec0:	84 81 00 0c 	l.lwz r4,12(r1)
    5ec4:	e0 ab 00 04 	l.or r5,r11,r0
    5ec8:	e0 cc 00 04 	l.or r6,r12,r0
    5ecc:	04 00 29 aa 	l.jal 10574 <__subdf3>
    5ed0:	15 00 00 00 	l.nop 0x0
    5ed4:	9c da 00 30 	l.addi r6,r26,48
    5ed8:	a8 ac 00 00 	l.ori r5,r12,0x0
    5edc:	a8 8b 00 00 	l.ori r4,r11,0x0
    5ee0:	e4 12 10 00 	l.sfeq r18,r2
    5ee4:	d8 12 30 00 	l.sb 0(r18),r6
    5ee8:	e0 64 00 04 	l.or r3,r4,r0
    5eec:	e0 85 00 04 	l.or r4,r5,r0
    5ef0:	0f ff ff cf 	l.bnf 5e2c <_dtoa_r+0xe64>
    5ef4:	a8 ab 00 00 	l.ori r5,r11,0x0
    5ef8:	a9 65 00 00 	l.ori r11,r5,0x0
    5efc:	a8 ec 00 00 	l.ori r7,r12,0x0
    5f00:	a8 4b 00 00 	l.ori r2,r11,0x0
    5f04:	a8 cb 00 00 	l.ori r6,r11,0x0
    5f08:	a8 6c 00 00 	l.ori r3,r12,0x0
    5f0c:	e0 a6 00 04 	l.or r5,r6,r0
    5f10:	e0 c7 00 04 	l.or r6,r7,r0
    5f14:	e0 83 00 04 	l.or r4,r3,r0
    5f18:	e0 62 00 04 	l.or r3,r2,r0
    5f1c:	04 00 20 94 	l.jal e16c <__adddf3>
    5f20:	15 00 00 00 	l.nop 0x0
    5f24:	84 61 00 00 	l.lwz r3,0(r1)
    5f28:	84 81 00 04 	l.lwz r4,4(r1)
    5f2c:	d4 01 58 08 	l.sw 8(r1),r11
    5f30:	d4 01 60 0c 	l.sw 12(r1),r12
    5f34:	e0 ab 00 04 	l.or r5,r11,r0
    5f38:	e0 cc 00 04 	l.or r6,r12,r0
    5f3c:	04 00 27 1b 	l.jal fba8 <__ledf2>
    5f40:	15 00 00 00 	l.nop 0x0
    5f44:	bd 8b 00 00 	l.sfltsi r11,0
    5f48:	10 00 00 0f 	l.bf 5f84 <_dtoa_r+0xfbc>
    5f4c:	15 00 00 00 	l.nop 0x0
    5f50:	84 61 00 00 	l.lwz r3,0(r1)
    5f54:	84 81 00 04 	l.lwz r4,4(r1)
    5f58:	84 a1 00 08 	l.lwz r5,8(r1)
    5f5c:	84 c1 00 0c 	l.lwz r6,12(r1)
    5f60:	04 00 26 55 	l.jal f8b4 <__eqdf2>
    5f64:	15 00 00 00 	l.nop 0x0
    5f68:	bc 0b 00 00 	l.sfeqi r11,0
    5f6c:	0f ff ff 13 	l.bnf 5bb8 <_dtoa_r+0xbf0>
    5f70:	a8 7e 00 00 	l.ori r3,r30,0x0
    5f74:	a4 5a 00 01 	l.andi r2,r26,0x1
    5f78:	bc 02 00 00 	l.sfeqi r2,0
    5f7c:	13 ff ff 0f 	l.bf 5bb8 <_dtoa_r+0xbf0>
    5f80:	15 00 00 00 	l.nop 0x0
    5f84:	90 56 ff ff 	l.lbs r2,-1(r22)
    5f88:	d4 01 c0 54 	l.sw 84(r1),r24
    5f8c:	9c 76 ff ff 	l.addi r3,r22,-1
    5f90:	84 a1 00 10 	l.lwz r5,16(r1)
    5f94:	00 00 00 08 	l.j 5fb4 <_dtoa_r+0xfec>
    5f98:	a8 83 00 00 	l.ori r4,r3,0x0
    5f9c:	e4 05 18 00 	l.sfeq r5,r3
    5fa0:	10 00 02 2a 	l.bf 6848 <_dtoa_r+0x1880>
    5fa4:	84 41 00 54 	l.lwz r2,84(r1)
    5fa8:	90 44 00 00 	l.lbs r2,0(r4)
    5fac:	aa c3 00 00 	l.ori r22,r3,0x0
    5fb0:	9c 63 ff ff 	l.addi r3,r3,-1
    5fb4:	bc 02 00 39 	l.sfeqi r2,57
    5fb8:	13 ff ff f9 	l.bf 5f9c <_dtoa_r+0xfd4>
    5fbc:	9c 84 ff ff 	l.addi r4,r4,-1
    5fc0:	9c 42 00 01 	l.addi r2,r2,1
    5fc4:	87 01 00 54 	l.lwz r24,84(r1)
    5fc8:	b8 42 00 18 	l.slli r2,r2,0x18
    5fcc:	b8 42 00 98 	l.srai r2,r2,0x18
    5fd0:	03 ff fe f9 	l.j 5bb4 <_dtoa_r+0xbec>
    5fd4:	d8 03 10 00 	l.sb 0(r3),r2
    5fd8:	84 61 00 08 	l.lwz r3,8(r1)
    5fdc:	9c 80 00 00 	l.addi r4,r0,0
    5fe0:	bd 43 00 01 	l.sfgtsi r3,1
    5fe4:	0c 00 01 6f 	l.bnf 65a0 <_dtoa_r+0x15d8>
    5fe8:	d4 01 20 00 	l.sw 0(r1),r4
    5fec:	84 a1 00 40 	l.lwz r5,64(r1)
    5ff0:	bc 05 00 00 	l.sfeqi r5,0
    5ff4:	13 ff fe a8 	l.bf 5a94 <_dtoa_r+0xacc>
    5ff8:	9d 60 00 01 	l.addi r11,r0,1
    5ffc:	03 ff fe 9f 	l.j 5a78 <_dtoa_r+0xab0>
    6000:	84 6e 00 10 	l.lwz r3,16(r14)
    6004:	04 00 2c 6c 	l.jal 111b4 <__floatsidf>
    6008:	18 40 00 01 	l.movhi r2,0x1
    600c:	e0 6b 00 04 	l.or r3,r11,r0
    6010:	e0 8c 00 04 	l.or r4,r12,r0
    6014:	84 a1 00 00 	l.lwz r5,0(r1)
    6018:	84 c1 00 04 	l.lwz r6,4(r1)
    601c:	04 00 27 5b 	l.jal fd88 <__muldf3>
    6020:	a8 42 16 94 	l.ori r2,r2,0x1694
    6024:	84 a2 00 00 	l.lwz r5,0(r2)
    6028:	84 c2 00 04 	l.lwz r6,4(r2)
    602c:	e0 6b 00 04 	l.or r3,r11,r0
    6030:	e0 8c 00 04 	l.or r4,r12,r0
    6034:	04 00 20 4e 	l.jal e16c <__adddf3>
    6038:	15 00 00 00 	l.nop 0x0
    603c:	18 60 fc c0 	l.movhi r3,0xfcc0
    6040:	a9 cc 00 00 	l.ori r14,r12,0x0
    6044:	e0 4b 18 00 	l.add r2,r11,r3
    6048:	18 a0 00 01 	l.movhi r5,0x1
    604c:	84 61 00 00 	l.lwz r3,0(r1)
    6050:	84 81 00 04 	l.lwz r4,4(r1)
    6054:	a8 a5 16 9c 	l.ori r5,r5,0x169c
    6058:	84 c5 00 04 	l.lwz r6,4(r5)
    605c:	84 a5 00 00 	l.lwz r5,0(r5)
    6060:	04 00 29 45 	l.jal 10574 <__subdf3>
    6064:	15 00 00 00 	l.nop 0x0
    6068:	a8 ee 00 00 	l.ori r7,r14,0x0
    606c:	a8 c2 00 00 	l.ori r6,r2,0x0
    6070:	d4 01 58 00 	l.sw 0(r1),r11
    6074:	d4 01 60 04 	l.sw 4(r1),r12
    6078:	e0 6b 00 04 	l.or r3,r11,r0
    607c:	e0 8c 00 04 	l.or r4,r12,r0
    6080:	e0 a6 00 04 	l.or r5,r6,r0
    6084:	e0 c7 00 04 	l.or r6,r7,r0
    6088:	04 00 26 4d 	l.jal f9bc <__gedf2>
    608c:	15 00 00 00 	l.nop 0x0
    6090:	bd 4b 00 00 	l.sfgtsi r11,0
    6094:	10 00 00 c5 	l.bf 63a8 <_dtoa_r+0x13e0>
    6098:	18 c0 80 00 	l.movhi r6,0x8000
    609c:	a8 ee 00 00 	l.ori r7,r14,0x0
    60a0:	e0 42 30 00 	l.add r2,r2,r6
    60a4:	84 61 00 00 	l.lwz r3,0(r1)
    60a8:	84 81 00 04 	l.lwz r4,4(r1)
    60ac:	a8 c2 00 00 	l.ori r6,r2,0x0
    60b0:	e0 a6 00 04 	l.or r5,r6,r0
    60b4:	e0 c7 00 04 	l.or r6,r7,r0
    60b8:	04 00 26 bc 	l.jal fba8 <__ledf2>
    60bc:	15 00 00 00 	l.nop 0x0
    60c0:	bd 8b 00 00 	l.sfltsi r11,0
    60c4:	0c 00 00 8c 	l.bnf 62f4 <_dtoa_r+0x132c>
    60c8:	15 00 00 00 	l.nop 0x0
    60cc:	9d c0 00 00 	l.addi r14,r0,0
    60d0:	03 ff fe 27 	l.j 596c <_dtoa_r+0x9a4>
    60d4:	a8 4e 00 00 	l.ori r2,r14,0x0
    60d8:	84 e1 00 34 	l.lwz r7,52(r1)
    60dc:	bc 27 00 00 	l.sfnei r7,0
    60e0:	10 00 01 5b 	l.bf 664c <_dtoa_r+0x1684>
    60e4:	bd b6 00 00 	l.sflesi r22,0
    60e8:	9e 40 00 00 	l.addi r18,r0,0
    60ec:	86 81 00 2c 	l.lwz r20,44(r1)
    60f0:	00 00 00 05 	l.j 6104 <_dtoa_r+0x113c>
    60f4:	86 c1 00 10 	l.lwz r22,16(r1)
    60f8:	04 00 0b 35 	l.jal 8dcc <__multadd>
    60fc:	15 00 00 00 	l.nop 0x0
    6100:	aa 8b 00 00 	l.ori r20,r11,0x0
    6104:	a8 74 00 00 	l.ori r3,r20,0x0
    6108:	07 ff fb 15 	l.jal 4d5c <quorem>
    610c:	a8 8e 00 00 	l.ori r4,r14,0x0
    6110:	e0 76 90 00 	l.add r3,r22,r18
    6114:	9d 6b 00 30 	l.addi r11,r11,48
    6118:	9e 52 00 01 	l.addi r18,r18,1
    611c:	d8 03 58 00 	l.sb 0(r3),r11
    6120:	e5 92 e0 00 	l.sflts r18,r28
    6124:	a8 7e 00 00 	l.ori r3,r30,0x0
    6128:	a8 94 00 00 	l.ori r4,r20,0x0
    612c:	9c a0 00 0a 	l.addi r5,r0,10
    6130:	13 ff ff f2 	l.bf 60f8 <_dtoa_r+0x1130>
    6134:	9c c0 00 00 	l.addi r6,r0,0
    6138:	d4 01 58 18 	l.sw 24(r1),r11
    613c:	e5 5c 30 00 	l.sfgts r28,r6
    6140:	0c 00 02 71 	l.bnf 6b04 <_dtoa_r+0x1b3c>
    6144:	d4 01 a0 2c 	l.sw 44(r1),r20
    6148:	84 61 00 10 	l.lwz r3,16(r1)
    614c:	e2 c3 e0 00 	l.add r22,r3,r28
    6150:	9f 80 00 00 	l.addi r28,r0,0
    6154:	9c a0 00 01 	l.addi r5,r0,1
    6158:	a8 7e 00 00 	l.ori r3,r30,0x0
    615c:	04 00 0d 25 	l.jal 95f0 <__lshift>
    6160:	84 81 00 2c 	l.lwz r4,44(r1)
    6164:	a8 8e 00 00 	l.ori r4,r14,0x0
    6168:	a8 6b 00 00 	l.ori r3,r11,0x0
    616c:	04 00 0d 84 	l.jal 977c <__mcmp>
    6170:	d4 01 58 2c 	l.sw 44(r1),r11
    6174:	bd 4b 00 00 	l.sfgtsi r11,0
    6178:	0c 00 00 25 	l.bnf 620c <_dtoa_r+0x1244>
    617c:	bc 2b 00 00 	l.sfnei r11,0
    6180:	90 b6 ff ff 	l.lbs r5,-1(r22)
    6184:	9c 76 ff ff 	l.addi r3,r22,-1
    6188:	84 c1 00 10 	l.lwz r6,16(r1)
    618c:	00 00 00 08 	l.j 61ac <_dtoa_r+0x11e4>
    6190:	a8 83 00 00 	l.ori r4,r3,0x0
    6194:	e4 06 18 00 	l.sfeq r6,r3
    6198:	10 00 02 02 	l.bf 69a0 <_dtoa_r+0x19d8>
    619c:	84 a1 00 10 	l.lwz r5,16(r1)
    61a0:	90 a4 00 00 	l.lbs r5,0(r4)
    61a4:	aa c3 00 00 	l.ori r22,r3,0x0
    61a8:	9c 63 ff ff 	l.addi r3,r3,-1
    61ac:	bc 05 00 39 	l.sfeqi r5,57
    61b0:	13 ff ff f9 	l.bf 6194 <_dtoa_r+0x11cc>
    61b4:	9c 84 ff ff 	l.addi r4,r4,-1
    61b8:	9c a5 00 01 	l.addi r5,r5,1
    61bc:	d8 03 28 00 	l.sb 0(r3),r5
    61c0:	a8 7e 00 00 	l.ori r3,r30,0x0
    61c4:	04 00 0a f4 	l.jal 8d94 <_Bfree>
    61c8:	a8 8e 00 00 	l.ori r4,r14,0x0
    61cc:	bc 02 00 00 	l.sfeqi r2,0
    61d0:	13 ff fe 79 	l.bf 5bb4 <_dtoa_r+0xbec>
    61d4:	e0 7c 10 05 	l.xor r3,r28,r2
    61d8:	e0 80 18 02 	l.sub r4,r0,r3
    61dc:	e0 64 18 04 	l.or r3,r4,r3
    61e0:	bd 63 00 00 	l.sfgesi r3,0
    61e4:	13 ff fe 71 	l.bf 5ba8 <_dtoa_r+0xbe0>
    61e8:	e0 60 e0 02 	l.sub r3,r0,r28
    61ec:	e0 7c 18 04 	l.or r3,r28,r3
    61f0:	bd 63 00 00 	l.sfgesi r3,0
    61f4:	13 ff fe 6d 	l.bf 5ba8 <_dtoa_r+0xbe0>
    61f8:	a8 7e 00 00 	l.ori r3,r30,0x0
    61fc:	04 00 0a e6 	l.jal 8d94 <_Bfree>
    6200:	a8 9c 00 00 	l.ori r4,r28,0x0
    6204:	03 ff fe 6a 	l.j 5bac <_dtoa_r+0xbe4>
    6208:	a8 7e 00 00 	l.ori r3,r30,0x0
    620c:	10 00 00 0b 	l.bf 6238 <_dtoa_r+0x1270>
    6210:	9c 76 ff ff 	l.addi r3,r22,-1
    6214:	84 81 00 18 	l.lwz r4,24(r1)
    6218:	a4 64 00 01 	l.andi r3,r4,0x1
    621c:	bc 03 00 00 	l.sfeqi r3,0
    6220:	10 00 00 05 	l.bf 6234 <_dtoa_r+0x126c>
    6224:	15 00 00 00 	l.nop 0x0
    6228:	03 ff ff d7 	l.j 6184 <_dtoa_r+0x11bc>
    622c:	90 b6 ff ff 	l.lbs r5,-1(r22)
    6230:	aa c3 00 00 	l.ori r22,r3,0x0
    6234:	9c 76 ff ff 	l.addi r3,r22,-1
    6238:	90 83 00 00 	l.lbs r4,0(r3)
    623c:	bc 04 00 30 	l.sfeqi r4,48
    6240:	13 ff ff fc 	l.bf 6230 <_dtoa_r+0x1268>
    6244:	15 00 00 00 	l.nop 0x0
    6248:	03 ff ff df 	l.j 61c4 <_dtoa_r+0x11fc>
    624c:	a8 7e 00 00 	l.ori r3,r30,0x0
    6250:	9c 60 00 1c 	l.addi r3,r0,28
    6254:	84 e1 00 28 	l.lwz r7,40(r1)
    6258:	e2 d6 18 00 	l.add r22,r22,r3
    625c:	e0 e7 18 00 	l.add r7,r7,r3
    6260:	e3 5a 18 00 	l.add r26,r26,r3
    6264:	03 ff fe 1b 	l.j 5ad0 <_dtoa_r+0xb08>
    6268:	d4 01 38 28 	l.sw 40(r1),r7
    626c:	a8 a2 00 00 	l.ori r5,r2,0x0
    6270:	d4 01 20 20 	l.sw 32(r1),r4
    6274:	d4 01 28 24 	l.sw 36(r1),r5
    6278:	03 ff fc 93 	l.j 54c4 <_dtoa_r+0x4fc>
    627c:	9e 40 00 02 	l.addi r18,r0,2
    6280:	9c a0 00 00 	l.addi r5,r0,0
    6284:	bc 04 00 02 	l.sfeqi r4,2
    6288:	13 ff fe 9d 	l.bf 5cfc <_dtoa_r+0xd34>
    628c:	d4 01 28 34 	l.sw 52(r1),r5
    6290:	9c 80 00 00 	l.addi r4,r0,0
    6294:	a8 7e 00 00 	l.ori r3,r30,0x0
    6298:	d4 1e 20 44 	l.sw 68(r30),r4
    629c:	04 00 0a 8e 	l.jal 8cd4 <_Balloc>
    62a0:	9c 40 00 01 	l.addi r2,r0,1
    62a4:	bd b8 00 0e 	l.sflesi r24,14
    62a8:	d4 01 58 10 	l.sw 16(r1),r11
    62ac:	d4 1e 58 40 	l.sw 64(r30),r11
    62b0:	10 00 00 03 	l.bf 62bc <_dtoa_r+0x12f4>
    62b4:	84 61 00 70 	l.lwz r3,112(r1)
    62b8:	9c 40 00 00 	l.addi r2,r0,0
    62bc:	a4 42 00 ff 	l.andi r2,r2,0xff
    62c0:	bc 02 00 00 	l.sfeqi r2,0
    62c4:	13 ff fe 6a 	l.bf 5c6c <_dtoa_r+0xca4>
    62c8:	9f 80 ff ff 	l.addi r28,r0,-1
    62cc:	bd 63 00 00 	l.sfgesi r3,0
    62d0:	0f ff fe 67 	l.bnf 5c6c <_dtoa_r+0xca4>
    62d4:	9c 40 00 00 	l.addi r2,r0,0
    62d8:	03 ff fd 81 	l.j 58dc <_dtoa_r+0x914>
    62dc:	d4 01 10 18 	l.sw 24(r1),r2
    62e0:	03 ff fb 7b 	l.j 50cc <_dtoa_r+0x104>
    62e4:	85 61 00 10 	l.lwz r11,16(r1)
    62e8:	87 01 00 60 	l.lwz r24,96(r1)
    62ec:	87 41 00 64 	l.lwz r26,100(r1)
    62f0:	87 81 00 68 	l.lwz r28,104(r1)
    62f4:	86 81 00 4c 	l.lwz r20,76(r1)
    62f8:	03 ff fd 6e 	l.j 58b0 <_dtoa_r+0x8e8>
    62fc:	86 41 00 50 	l.lwz r18,80(r1)
    6300:	e0 80 c0 02 	l.sub r4,r0,r24
    6304:	bc 04 00 00 	l.sfeqi r4,0
    6308:	10 00 01 57 	l.bf 6864 <_dtoa_r+0x189c>
    630c:	a8 a2 00 00 	l.ori r5,r2,0x0
    6310:	a4 a4 00 0f 	l.andi r5,r4,0xf
    6314:	18 60 00 01 	l.movhi r3,0x1
    6318:	b8 a5 00 03 	l.slli r5,r5,0x3
    631c:	a8 63 17 20 	l.ori r3,r3,0x1720
    6320:	a8 e2 00 00 	l.ori r7,r2,0x0
    6324:	a8 d4 00 00 	l.ori r6,r20,0x0
    6328:	b8 44 00 84 	l.srai r2,r4,0x4
    632c:	e0 a5 18 00 	l.add r5,r5,r3
    6330:	e0 66 00 04 	l.or r3,r6,r0
    6334:	e0 87 00 04 	l.or r4,r7,r0
    6338:	84 c5 00 04 	l.lwz r6,4(r5)
    633c:	84 a5 00 00 	l.lwz r5,0(r5)
    6340:	04 00 26 92 	l.jal fd88 <__muldf3>
    6344:	15 00 00 00 	l.nop 0x0
    6348:	bc 02 00 00 	l.sfeqi r2,0
    634c:	d4 01 58 00 	l.sw 0(r1),r11
    6350:	d4 01 60 04 	l.sw 4(r1),r12
    6354:	13 ff fc 79 	l.bf 5538 <_dtoa_r+0x570>
    6358:	9e 40 00 02 	l.addi r18,r0,2
    635c:	19 c0 00 01 	l.movhi r14,0x1
    6360:	a9 ce 16 f8 	l.ori r14,r14,0x16f8
    6364:	a4 82 00 01 	l.andi r4,r2,0x1
    6368:	bc 04 00 00 	l.sfeqi r4,0
    636c:	e0 6b 00 04 	l.or r3,r11,r0
    6370:	e0 8c 00 04 	l.or r4,r12,r0
    6374:	10 00 00 06 	l.bf 638c <_dtoa_r+0x13c4>
    6378:	b8 42 00 81 	l.srai r2,r2,0x1
    637c:	84 ae 00 00 	l.lwz r5,0(r14)
    6380:	84 ce 00 04 	l.lwz r6,4(r14)
    6384:	04 00 26 81 	l.jal fd88 <__muldf3>
    6388:	9e 52 00 01 	l.addi r18,r18,1
    638c:	bc 22 00 00 	l.sfnei r2,0
    6390:	13 ff ff f5 	l.bf 6364 <_dtoa_r+0x139c>
    6394:	9d ce 00 08 	l.addi r14,r14,8
    6398:	d4 01 58 00 	l.sw 0(r1),r11
    639c:	d4 01 60 04 	l.sw 4(r1),r12
    63a0:	03 ff fc 67 	l.j 553c <_dtoa_r+0x574>
    63a4:	84 41 00 30 	l.lwz r2,48(r1)
    63a8:	9d c0 00 00 	l.addi r14,r0,0
    63ac:	03 ff fd f4 	l.j 5b7c <_dtoa_r+0xbb4>
    63b0:	a8 4e 00 00 	l.ori r2,r14,0x0
    63b4:	9e 83 ff ff 	l.addi r20,r3,-1
    63b8:	18 80 00 01 	l.movhi r4,0x1
    63bc:	b8 74 00 03 	l.slli r3,r20,0x3
    63c0:	a8 84 17 20 	l.ori r4,r4,0x1720
    63c4:	a8 ee 00 00 	l.ori r7,r14,0x0
    63c8:	a8 c2 00 00 	l.ori r6,r2,0x0
    63cc:	e0 43 20 00 	l.add r2,r3,r4
    63d0:	e0 a6 00 04 	l.or r5,r6,r0
    63d4:	e0 c7 00 04 	l.or r6,r7,r0
    63d8:	84 62 00 00 	l.lwz r3,0(r2)
    63dc:	84 82 00 04 	l.lwz r4,4(r2)
    63e0:	04 00 26 6a 	l.jal fd88 <__muldf3>
    63e4:	15 00 00 00 	l.nop 0x0
    63e8:	84 61 00 00 	l.lwz r3,0(r1)
    63ec:	84 81 00 04 	l.lwz r4,4(r1)
    63f0:	d4 01 58 20 	l.sw 32(r1),r11
    63f4:	d4 01 60 24 	l.sw 36(r1),r12
    63f8:	04 00 2b 45 	l.jal 1110c <__fixdfsi>
    63fc:	15 00 00 00 	l.nop 0x0
    6400:	84 a1 00 10 	l.lwz r5,16(r1)
    6404:	a8 6b 00 00 	l.ori r3,r11,0x0
    6408:	a8 4b 00 00 	l.ori r2,r11,0x0
    640c:	04 00 2b 6a 	l.jal 111b4 <__floatsidf>
    6410:	9e c5 00 01 	l.addi r22,r5,1
    6414:	84 61 00 00 	l.lwz r3,0(r1)
    6418:	84 81 00 04 	l.lwz r4,4(r1)
    641c:	e0 ab 00 04 	l.or r5,r11,r0
    6420:	e0 cc 00 04 	l.or r6,r12,r0
    6424:	04 00 28 54 	l.jal 10574 <__subdf3>
    6428:	9c 42 00 30 	l.addi r2,r2,48
    642c:	84 c1 00 44 	l.lwz r6,68(r1)
    6430:	84 e1 00 10 	l.lwz r7,16(r1)
    6434:	bc 26 00 01 	l.sfnei r6,1
    6438:	d8 07 10 00 	l.sb 0(r7),r2
    643c:	d4 01 58 00 	l.sw 0(r1),r11
    6440:	d4 01 60 04 	l.sw 4(r1),r12
    6444:	0c 00 00 25 	l.bnf 64d8 <_dtoa_r+0x1510>
    6448:	84 61 00 10 	l.lwz r3,16(r1)
    644c:	84 81 00 44 	l.lwz r4,68(r1)
    6450:	a8 56 00 00 	l.ori r2,r22,0x0
    6454:	e2 43 20 00 	l.add r18,r3,r4
    6458:	84 61 00 00 	l.lwz r3,0(r1)
    645c:	84 81 00 04 	l.lwz r4,4(r1)
    6460:	18 e0 00 01 	l.movhi r7,0x1
    6464:	a8 e7 16 8c 	l.ori r7,r7,0x168c
    6468:	84 a7 00 00 	l.lwz r5,0(r7)
    646c:	84 c7 00 04 	l.lwz r6,4(r7)
    6470:	04 00 26 46 	l.jal fd88 <__muldf3>
    6474:	9c 42 00 01 	l.addi r2,r2,1
    6478:	e0 6b 00 04 	l.or r3,r11,r0
    647c:	e0 8c 00 04 	l.or r4,r12,r0
    6480:	d4 01 58 00 	l.sw 0(r1),r11
    6484:	d4 01 60 04 	l.sw 4(r1),r12
    6488:	04 00 2b 21 	l.jal 1110c <__fixdfsi>
    648c:	15 00 00 00 	l.nop 0x0
    6490:	a9 cb 00 00 	l.ori r14,r11,0x0
    6494:	a8 6b 00 00 	l.ori r3,r11,0x0
    6498:	04 00 2b 47 	l.jal 111b4 <__floatsidf>
    649c:	9d ce 00 30 	l.addi r14,r14,48
    64a0:	84 61 00 00 	l.lwz r3,0(r1)
    64a4:	84 81 00 04 	l.lwz r4,4(r1)
    64a8:	e0 ab 00 04 	l.or r5,r11,r0
    64ac:	e0 cc 00 04 	l.or r6,r12,r0
    64b0:	04 00 28 31 	l.jal 10574 <__subdf3>
    64b4:	15 00 00 00 	l.nop 0x0
    64b8:	e4 22 90 00 	l.sfne r2,r18
    64bc:	e0 6b 00 04 	l.or r3,r11,r0
    64c0:	e0 8c 00 04 	l.or r4,r12,r0
    64c4:	13 ff ff e7 	l.bf 6460 <_dtoa_r+0x1498>
    64c8:	db e2 77 ff 	l.sb -1(r2),r14
    64cc:	e2 d6 a0 00 	l.add r22,r22,r20
    64d0:	d4 01 58 00 	l.sw 0(r1),r11
    64d4:	d4 01 60 04 	l.sw 4(r1),r12
    64d8:	18 40 00 01 	l.movhi r2,0x1
    64dc:	84 61 00 20 	l.lwz r3,32(r1)
    64e0:	84 81 00 24 	l.lwz r4,36(r1)
    64e4:	a8 42 16 a4 	l.ori r2,r2,0x16a4
    64e8:	84 a2 00 00 	l.lwz r5,0(r2)
    64ec:	84 c2 00 04 	l.lwz r6,4(r2)
    64f0:	04 00 1f 1f 	l.jal e16c <__adddf3>
    64f4:	15 00 00 00 	l.nop 0x0
    64f8:	84 a1 00 00 	l.lwz r5,0(r1)
    64fc:	84 c1 00 04 	l.lwz r6,4(r1)
    6500:	e0 6b 00 04 	l.or r3,r11,r0
    6504:	e0 8c 00 04 	l.or r4,r12,r0
    6508:	04 00 25 a8 	l.jal fba8 <__ledf2>
    650c:	15 00 00 00 	l.nop 0x0
    6510:	bd 8b 00 00 	l.sfltsi r11,0
    6514:	0c 00 01 04 	l.bnf 6924 <_dtoa_r+0x195c>
    6518:	15 00 00 00 	l.nop 0x0
    651c:	03 ff fe 9c 	l.j 5f8c <_dtoa_r+0xfc4>
    6520:	90 56 ff ff 	l.lbs r2,-1(r22)
    6524:	84 61 00 2c 	l.lwz r3,44(r1)
    6528:	04 00 0c 95 	l.jal 977c <__mcmp>
    652c:	a8 8e 00 00 	l.ori r4,r14,0x0
    6530:	bd 6b 00 00 	l.sfgesi r11,0
    6534:	13 ff fd 7a 	l.bf 5b1c <_dtoa_r+0xb54>
    6538:	84 61 00 08 	l.lwz r3,8(r1)
    653c:	9c a0 00 0a 	l.addi r5,r0,10
    6540:	a8 7e 00 00 	l.ori r3,r30,0x0
    6544:	84 81 00 2c 	l.lwz r4,44(r1)
    6548:	9c c0 00 00 	l.addi r6,r0,0
    654c:	04 00 0a 20 	l.jal 8dcc <__multadd>
    6550:	9f 18 ff ff 	l.addi r24,r24,-1
    6554:	84 a1 00 34 	l.lwz r5,52(r1)
    6558:	bc 05 00 00 	l.sfeqi r5,0
    655c:	0c 00 00 27 	l.bnf 65f8 <_dtoa_r+0x1630>
    6560:	d4 01 58 2c 	l.sw 44(r1),r11
    6564:	84 a1 00 08 	l.lwz r5,8(r1)
    6568:	bd 45 00 02 	l.sfgtsi r5,2
    656c:	10 00 00 04 	l.bf 657c <_dtoa_r+0x15b4>
    6570:	9c 60 00 01 	l.addi r3,r0,1
    6574:	84 c1 00 34 	l.lwz r6,52(r1)
    6578:	a8 66 00 00 	l.ori r3,r6,0x0
    657c:	a4 63 00 ff 	l.andi r3,r3,0xff
    6580:	bc 03 00 00 	l.sfeqi r3,0
    6584:	10 00 00 05 	l.bf 6598 <_dtoa_r+0x15d0>
    6588:	84 e1 00 3c 	l.lwz r7,60(r1)
    658c:	bd a7 00 00 	l.sflesi r7,0
    6590:	13 ff fd 6d 	l.bf 5b44 <_dtoa_r+0xb7c>
    6594:	ab 87 00 00 	l.ori r28,r7,0x0
    6598:	03 ff fe d4 	l.j 60e8 <_dtoa_r+0x1120>
    659c:	87 81 00 3c 	l.lwz r28,60(r1)
    65a0:	e4 32 20 00 	l.sfne r18,r4
    65a4:	13 ff fe 93 	l.bf 5ff0 <_dtoa_r+0x1028>
    65a8:	84 a1 00 40 	l.lwz r5,64(r1)
    65ac:	18 c0 00 0f 	l.movhi r6,0xf
    65b0:	9c a0 00 00 	l.addi r5,r0,0
    65b4:	a8 c6 ff ff 	l.ori r6,r6,0xffff
    65b8:	e0 74 30 03 	l.and r3,r20,r6
    65bc:	e4 23 28 00 	l.sfne r3,r5
    65c0:	13 ff fe 8b 	l.bf 5fec <_dtoa_r+0x1024>
    65c4:	d4 01 28 00 	l.sw 0(r1),r5
    65c8:	18 e0 7f f0 	l.movhi r7,0x7ff0
    65cc:	e2 94 38 03 	l.and r20,r20,r7
    65d0:	e4 14 28 00 	l.sfeq r20,r5
    65d4:	13 ff fe 87 	l.bf 5ff0 <_dtoa_r+0x1028>
    65d8:	84 a1 00 40 	l.lwz r5,64(r1)
    65dc:	84 61 00 28 	l.lwz r3,40(r1)
    65e0:	9c 80 00 01 	l.addi r4,r0,1
    65e4:	9c 63 00 01 	l.addi r3,r3,1
    65e8:	9f 5a 00 01 	l.addi r26,r26,1
    65ec:	d4 01 18 28 	l.sw 40(r1),r3
    65f0:	03 ff fe 7f 	l.j 5fec <_dtoa_r+0x1024>
    65f4:	d4 01 20 00 	l.sw 0(r1),r4
    65f8:	a8 7e 00 00 	l.ori r3,r30,0x0
    65fc:	a8 82 00 00 	l.ori r4,r2,0x0
    6600:	9c c0 00 00 	l.addi r6,r0,0
    6604:	04 00 09 f2 	l.jal 8dcc <__multadd>
    6608:	9c a0 00 0a 	l.addi r5,r0,10
    660c:	84 c1 00 08 	l.lwz r6,8(r1)
    6610:	a8 4b 00 00 	l.ori r2,r11,0x0
    6614:	bd 46 00 02 	l.sfgtsi r6,2
    6618:	10 00 00 03 	l.bf 6624 <_dtoa_r+0x165c>
    661c:	9c 60 00 01 	l.addi r3,r0,1
    6620:	9c 60 00 00 	l.addi r3,r0,0
    6624:	a4 63 00 ff 	l.andi r3,r3,0xff
    6628:	bc 03 00 00 	l.sfeqi r3,0
    662c:	10 00 00 06 	l.bf 6644 <_dtoa_r+0x167c>
    6630:	15 00 00 00 	l.nop 0x0
    6634:	84 e1 00 3c 	l.lwz r7,60(r1)
    6638:	bd a7 00 00 	l.sflesi r7,0
    663c:	13 ff fd 42 	l.bf 5b44 <_dtoa_r+0xb7c>
    6640:	ab 87 00 00 	l.ori r28,r7,0x0
    6644:	87 81 00 3c 	l.lwz r28,60(r1)
    6648:	bd b6 00 00 	l.sflesi r22,0
    664c:	10 00 00 06 	l.bf 6664 <_dtoa_r+0x169c>
    6650:	a8 82 00 00 	l.ori r4,r2,0x0
    6654:	a8 7e 00 00 	l.ori r3,r30,0x0
    6658:	04 00 0b e6 	l.jal 95f0 <__lshift>
    665c:	a8 b6 00 00 	l.ori r5,r22,0x0
    6660:	a8 4b 00 00 	l.ori r2,r11,0x0
    6664:	84 61 00 00 	l.lwz r3,0(r1)
    6668:	bc 03 00 00 	l.sfeqi r3,0
    666c:	0c 00 00 dd 	l.bnf 69e0 <_dtoa_r+0x1a18>
    6670:	ab 42 00 00 	l.ori r26,r2,0x0
    6674:	9f 9c ff ff 	l.addi r28,r28,-1
    6678:	86 81 00 10 	l.lwz r20,16(r1)
    667c:	a6 52 00 01 	l.andi r18,r18,0x1
    6680:	e3 94 e0 00 	l.add r28,r20,r28
    6684:	d4 01 c0 30 	l.sw 48(r1),r24
    6688:	d4 01 e0 28 	l.sw 40(r1),r28
    668c:	ab 0e 00 00 	l.ori r24,r14,0x0
    6690:	d4 01 90 20 	l.sw 32(r1),r18
    6694:	85 c1 00 2c 	l.lwz r14,44(r1)
    6698:	a8 6e 00 00 	l.ori r3,r14,0x0
    669c:	07 ff f9 b0 	l.jal 4d5c <quorem>
    66a0:	a8 98 00 00 	l.ori r4,r24,0x0
    66a4:	a8 6e 00 00 	l.ori r3,r14,0x0
    66a8:	9c ab 00 30 	l.addi r5,r11,48
    66ac:	a8 82 00 00 	l.ori r4,r2,0x0
    66b0:	d4 01 28 18 	l.sw 24(r1),r5
    66b4:	04 00 0c 32 	l.jal 977c <__mcmp>
    66b8:	d4 01 58 00 	l.sw 0(r1),r11
    66bc:	a8 7e 00 00 	l.ori r3,r30,0x0
    66c0:	a8 98 00 00 	l.ori r4,r24,0x0
    66c4:	a8 ba 00 00 	l.ori r5,r26,0x0
    66c8:	04 00 0c 4d 	l.jal 97fc <__mdiff>
    66cc:	aa 4b 00 00 	l.ori r18,r11,0x0
    66d0:	84 6b 00 0c 	l.lwz r3,12(r11)
    66d4:	bc 23 00 00 	l.sfnei r3,0
    66d8:	10 00 00 43 	l.bf 67e4 <_dtoa_r+0x181c>
    66dc:	aa cb 00 00 	l.ori r22,r11,0x0
    66e0:	a8 6e 00 00 	l.ori r3,r14,0x0
    66e4:	04 00 0c 26 	l.jal 977c <__mcmp>
    66e8:	a8 8b 00 00 	l.ori r4,r11,0x0
    66ec:	ab 8b 00 00 	l.ori r28,r11,0x0
    66f0:	a8 7e 00 00 	l.ori r3,r30,0x0
    66f4:	04 00 09 a8 	l.jal 8d94 <_Bfree>
    66f8:	a8 96 00 00 	l.ori r4,r22,0x0
    66fc:	84 c1 00 08 	l.lwz r6,8(r1)
    6700:	e0 7c 30 04 	l.or r3,r28,r6
    6704:	bc 23 00 00 	l.sfnei r3,0
    6708:	10 00 00 06 	l.bf 6720 <_dtoa_r+0x1758>
    670c:	bd 72 00 00 	l.sfgesi r18,0
    6710:	84 e1 00 20 	l.lwz r7,32(r1)
    6714:	bc 27 00 00 	l.sfnei r7,0
    6718:	0c 00 00 fd 	l.bnf 6b0c <_dtoa_r+0x1b44>
    671c:	bd 72 00 00 	l.sfgesi r18,0
    6720:	0c 00 00 c6 	l.bnf 6a38 <_dtoa_r+0x1a70>
    6724:	84 e1 00 08 	l.lwz r7,8(r1)
    6728:	e2 52 38 04 	l.or r18,r18,r7
    672c:	bc 32 00 00 	l.sfnei r18,0
    6730:	10 00 00 06 	l.bf 6748 <_dtoa_r+0x1780>
    6734:	bd bc 00 00 	l.sflesi r28,0
    6738:	84 61 00 20 	l.lwz r3,32(r1)
    673c:	bc 03 00 00 	l.sfeqi r3,0
    6740:	10 00 00 fe 	l.bf 6b38 <_dtoa_r+0x1b70>
    6744:	bd bc 00 00 	l.sflesi r28,0
    6748:	0c 00 00 dc 	l.bnf 6ab8 <_dtoa_r+0x1af0>
    674c:	84 c1 00 18 	l.lwz r6,24(r1)
    6750:	84 e1 00 28 	l.lwz r7,40(r1)
    6754:	9e 54 00 01 	l.addi r18,r20,1
    6758:	d8 14 30 00 	l.sb 0(r20),r6
    675c:	e4 14 38 00 	l.sfeq r20,r7
    6760:	10 00 00 e3 	l.bf 6aec <_dtoa_r+0x1b24>
    6764:	aa d2 00 00 	l.ori r22,r18,0x0
    6768:	a8 8e 00 00 	l.ori r4,r14,0x0
    676c:	a8 7e 00 00 	l.ori r3,r30,0x0
    6770:	9c a0 00 0a 	l.addi r5,r0,10
    6774:	04 00 09 96 	l.jal 8dcc <__multadd>
    6778:	9c c0 00 00 	l.addi r6,r0,0
    677c:	e4 22 d0 00 	l.sfne r2,r26
    6780:	0c 00 00 10 	l.bnf 67c0 <_dtoa_r+0x17f8>
    6784:	a9 cb 00 00 	l.ori r14,r11,0x0
    6788:	a8 82 00 00 	l.ori r4,r2,0x0
    678c:	9c a0 00 0a 	l.addi r5,r0,10
    6790:	9c c0 00 00 	l.addi r6,r0,0
    6794:	a8 7e 00 00 	l.ori r3,r30,0x0
    6798:	04 00 09 8d 	l.jal 8dcc <__multadd>
    679c:	aa 92 00 00 	l.ori r20,r18,0x0
    67a0:	a8 9a 00 00 	l.ori r4,r26,0x0
    67a4:	a8 7e 00 00 	l.ori r3,r30,0x0
    67a8:	9c a0 00 0a 	l.addi r5,r0,10
    67ac:	9c c0 00 00 	l.addi r6,r0,0
    67b0:	04 00 09 87 	l.jal 8dcc <__multadd>
    67b4:	a8 4b 00 00 	l.ori r2,r11,0x0
    67b8:	03 ff ff b8 	l.j 6698 <_dtoa_r+0x16d0>
    67bc:	ab 4b 00 00 	l.ori r26,r11,0x0
    67c0:	a8 82 00 00 	l.ori r4,r2,0x0
    67c4:	a8 7e 00 00 	l.ori r3,r30,0x0
    67c8:	9c a0 00 0a 	l.addi r5,r0,10
    67cc:	9c c0 00 00 	l.addi r6,r0,0
    67d0:	04 00 09 7f 	l.jal 8dcc <__multadd>
    67d4:	aa 92 00 00 	l.ori r20,r18,0x0
    67d8:	a8 4b 00 00 	l.ori r2,r11,0x0
    67dc:	03 ff ff af 	l.j 6698 <_dtoa_r+0x16d0>
    67e0:	ab 4b 00 00 	l.ori r26,r11,0x0
    67e4:	03 ff ff c3 	l.j 66f0 <_dtoa_r+0x1728>
    67e8:	9f 80 00 01 	l.addi r28,r0,1
    67ec:	9c 80 00 00 	l.addi r4,r0,0
    67f0:	03 ff fa f6 	l.j 53c8 <_dtoa_r+0x400>
    67f4:	d4 01 20 34 	l.sw 52(r1),r4
    67f8:	bc bc 00 0e 	l.sfleui r28,14
    67fc:	10 00 00 03 	l.bf 6808 <_dtoa_r+0x1840>
    6800:	9d c0 00 01 	l.addi r14,r0,1
    6804:	9d c0 00 00 	l.addi r14,r0,0
    6808:	a5 ce 00 ff 	l.andi r14,r14,0xff
    680c:	9c 80 00 00 	l.addi r4,r0,0
    6810:	e1 ce 18 03 	l.and r14,r14,r3
    6814:	03 ff fb 07 	l.j 5430 <_dtoa_r+0x468>
    6818:	d4 1e 20 44 	l.sw 68(r30),r4
    681c:	9d c0 00 01 	l.addi r14,r0,1
    6820:	d4 01 70 3c 	l.sw 60(r1),r14
    6824:	ab 8e 00 00 	l.ori r28,r14,0x0
    6828:	03 ff ff f9 	l.j 680c <_dtoa_r+0x1844>
    682c:	d4 01 70 18 	l.sw 24(r1),r14
    6830:	a8 7e 00 00 	l.ori r3,r30,0x0
    6834:	84 81 00 2c 	l.lwz r4,44(r1)
    6838:	04 00 0b 0d 	l.jal 946c <__pow5mult>
    683c:	84 a1 00 38 	l.lwz r5,56(r1)
    6840:	03 ff fc 7d 	l.j 5a34 <_dtoa_r+0xa6c>
    6844:	d4 01 58 2c 	l.sw 44(r1),r11
    6848:	9c a0 00 30 	l.addi r5,r0,48
    684c:	84 81 00 10 	l.lwz r4,16(r1)
    6850:	9f 02 00 01 	l.addi r24,r2,1
    6854:	9c 40 00 31 	l.addi r2,r0,49
    6858:	d8 04 28 00 	l.sb 0(r4),r5
    685c:	03 ff fc d6 	l.j 5bb4 <_dtoa_r+0xbec>
    6860:	d8 03 10 00 	l.sb 0(r3),r2
    6864:	a8 94 00 00 	l.ori r4,r20,0x0
    6868:	d4 01 20 00 	l.sw 0(r1),r4
    686c:	d4 01 28 04 	l.sw 4(r1),r5
    6870:	03 ff fb 32 	l.j 5538 <_dtoa_r+0x570>
    6874:	9e 40 00 02 	l.addi r18,r0,2
    6878:	bc 1c 00 00 	l.sfeqi r28,0
    687c:	13 ff fd e2 	l.bf 6004 <_dtoa_r+0x103c>
    6880:	15 00 00 00 	l.nop 0x0
    6884:	84 41 00 3c 	l.lwz r2,60(r1)
    6888:	bd a2 00 00 	l.sflesi r2,0
    688c:	13 ff fe 9a 	l.bf 62f4 <_dtoa_r+0x132c>
    6890:	19 c0 00 01 	l.movhi r14,0x1
    6894:	a9 ce 16 8c 	l.ori r14,r14,0x168c
    6898:	84 61 00 00 	l.lwz r3,0(r1)
    689c:	84 81 00 04 	l.lwz r4,4(r1)
    68a0:	84 ae 00 00 	l.lwz r5,0(r14)
    68a4:	84 ce 00 04 	l.lwz r6,4(r14)
    68a8:	04 00 25 38 	l.jal fd88 <__muldf3>
    68ac:	9c 58 ff ff 	l.addi r2,r24,-1
    68b0:	9c 72 00 01 	l.addi r3,r18,1
    68b4:	d4 01 10 54 	l.sw 84(r1),r2
    68b8:	18 40 00 01 	l.movhi r2,0x1
    68bc:	d4 01 58 00 	l.sw 0(r1),r11
    68c0:	d4 01 60 04 	l.sw 4(r1),r12
    68c4:	04 00 2a 3c 	l.jal 111b4 <__floatsidf>
    68c8:	a8 42 16 94 	l.ori r2,r2,0x1694
    68cc:	84 61 00 00 	l.lwz r3,0(r1)
    68d0:	84 81 00 04 	l.lwz r4,4(r1)
    68d4:	e0 ab 00 04 	l.or r5,r11,r0
    68d8:	e0 cc 00 04 	l.or r6,r12,r0
    68dc:	04 00 25 2b 	l.jal fd88 <__muldf3>
    68e0:	15 00 00 00 	l.nop 0x0
    68e4:	84 a2 00 00 	l.lwz r5,0(r2)
    68e8:	84 c2 00 04 	l.lwz r6,4(r2)
    68ec:	e0 6b 00 04 	l.or r3,r11,r0
    68f0:	e0 8c 00 04 	l.or r4,r12,r0
    68f4:	04 00 1e 1e 	l.jal e16c <__adddf3>
    68f8:	15 00 00 00 	l.nop 0x0
    68fc:	18 60 fc c0 	l.movhi r3,0xfcc0
    6900:	84 81 00 3c 	l.lwz r4,60(r1)
    6904:	e0 4b 18 00 	l.add r2,r11,r3
    6908:	a9 cc 00 00 	l.ori r14,r12,0x0
    690c:	03 ff fb 2f 	l.j 55c8 <_dtoa_r+0x600>
    6910:	d4 01 20 44 	l.sw 68(r1),r4
    6914:	04 00 0a d6 	l.jal 946c <__pow5mult>
    6918:	84 81 00 2c 	l.lwz r4,44(r1)
    691c:	03 ff fc 46 	l.j 5a34 <_dtoa_r+0xa6c>
    6920:	d4 01 58 2c 	l.sw 44(r1),r11
    6924:	84 62 00 00 	l.lwz r3,0(r2)
    6928:	84 82 00 04 	l.lwz r4,4(r2)
    692c:	84 a1 00 20 	l.lwz r5,32(r1)
    6930:	84 c1 00 24 	l.lwz r6,36(r1)
    6934:	04 00 27 10 	l.jal 10574 <__subdf3>
    6938:	15 00 00 00 	l.nop 0x0
    693c:	84 a1 00 00 	l.lwz r5,0(r1)
    6940:	84 c1 00 04 	l.lwz r6,4(r1)
    6944:	e0 6b 00 04 	l.or r3,r11,r0
    6948:	e0 8c 00 04 	l.or r4,r12,r0
    694c:	04 00 24 1c 	l.jal f9bc <__gedf2>
    6950:	15 00 00 00 	l.nop 0x0
    6954:	bd 4b 00 00 	l.sfgtsi r11,0
    6958:	10 00 00 05 	l.bf 696c <_dtoa_r+0x19a4>
    695c:	86 81 00 4c 	l.lwz r20,76(r1)
    6960:	03 ff fb d4 	l.j 58b0 <_dtoa_r+0x8e8>
    6964:	86 41 00 50 	l.lwz r18,80(r1)
    6968:	aa c2 00 00 	l.ori r22,r2,0x0
    696c:	9c 56 ff ff 	l.addi r2,r22,-1
    6970:	90 62 00 00 	l.lbs r3,0(r2)
    6974:	bc 03 00 30 	l.sfeqi r3,48
    6978:	13 ff ff fc 	l.bf 6968 <_dtoa_r+0x19a0>
    697c:	87 01 00 54 	l.lwz r24,84(r1)
    6980:	03 ff fc 8e 	l.j 5bb8 <_dtoa_r+0xbf0>
    6984:	a8 7e 00 00 	l.ori r3,r30,0x0
    6988:	bc 12 00 00 	l.sfeqi r18,0
    698c:	13 ff ff 09 	l.bf 65b0 <_dtoa_r+0x15e8>
    6990:	18 c0 00 0f 	l.movhi r6,0xf
    6994:	9c 60 00 00 	l.addi r3,r0,0
    6998:	03 ff fc 37 	l.j 5a74 <_dtoa_r+0xaac>
    699c:	d4 01 18 00 	l.sw 0(r1),r3
    69a0:	9c c0 00 31 	l.addi r6,r0,49
    69a4:	9f 18 00 01 	l.addi r24,r24,1
    69a8:	03 ff fe 06 	l.j 61c0 <_dtoa_r+0x11f8>
    69ac:	d8 05 30 00 	l.sb 0(r5),r6
    69b0:	84 41 00 48 	l.lwz r2,72(r1)
    69b4:	bc 02 00 00 	l.sfeqi r2,0
    69b8:	10 00 00 1a 	l.bf 6a20 <_dtoa_r+0x1a58>
    69bc:	15 00 00 00 	l.nop 0x0
    69c0:	9c 43 04 33 	l.addi r2,r3,1075
    69c4:	85 c1 00 38 	l.lwz r14,56(r1)
    69c8:	03 ff fc c2 	l.j 5cd0 <_dtoa_r+0xd08>
    69cc:	86 c1 00 28 	l.lwz r22,40(r1)
    69d0:	84 41 00 28 	l.lwz r2,40(r1)
    69d4:	e2 c2 e0 02 	l.sub r22,r2,r28
    69d8:	03 ff fc be 	l.j 5cd0 <_dtoa_r+0xd08>
    69dc:	9c 40 00 00 	l.addi r2,r0,0
    69e0:	a8 7e 00 00 	l.ori r3,r30,0x0
    69e4:	04 00 08 bc 	l.jal 8cd4 <_Balloc>
    69e8:	84 82 00 04 	l.lwz r4,4(r2)
    69ec:	84 a2 00 10 	l.lwz r5,16(r2)
    69f0:	9c 6b 00 0c 	l.addi r3,r11,12
    69f4:	9c a5 00 02 	l.addi r5,r5,2
    69f8:	9c 82 00 0c 	l.addi r4,r2,12
    69fc:	b8 a5 00 02 	l.slli r5,r5,0x2
    6a00:	04 00 07 c5 	l.jal 8914 <memcpy>
    6a04:	aa 8b 00 00 	l.ori r20,r11,0x0
    6a08:	a8 7e 00 00 	l.ori r3,r30,0x0
    6a0c:	a8 94 00 00 	l.ori r4,r20,0x0
    6a10:	04 00 0a f8 	l.jal 95f0 <__lshift>
    6a14:	9c a0 00 01 	l.addi r5,r0,1
    6a18:	03 ff ff 17 	l.j 6674 <_dtoa_r+0x16ac>
    6a1c:	ab 4b 00 00 	l.ori r26,r11,0x0
    6a20:	84 61 00 6c 	l.lwz r3,108(r1)
    6a24:	9c 40 00 36 	l.addi r2,r0,54
    6a28:	85 c1 00 38 	l.lwz r14,56(r1)
    6a2c:	e0 42 18 02 	l.sub r2,r2,r3
    6a30:	03 ff fc a8 	l.j 5cd0 <_dtoa_r+0xd08>
    6a34:	86 c1 00 28 	l.lwz r22,40(r1)
    6a38:	d4 01 70 2c 	l.sw 44(r1),r14
    6a3c:	84 a1 00 18 	l.lwz r5,24(r1)
    6a40:	a9 d8 00 00 	l.ori r14,r24,0x0
    6a44:	d4 01 28 08 	l.sw 8(r1),r5
    6a48:	87 01 00 30 	l.lwz r24,48(r1)
    6a4c:	86 41 00 2c 	l.lwz r18,44(r1)
    6a50:	bd 5c 00 00 	l.sfgtsi r28,0
    6a54:	0c 00 00 12 	l.bnf 6a9c <_dtoa_r+0x1ad4>
    6a58:	9c a0 00 01 	l.addi r5,r0,1
    6a5c:	a8 7e 00 00 	l.ori r3,r30,0x0
    6a60:	04 00 0a e4 	l.jal 95f0 <__lshift>
    6a64:	84 81 00 2c 	l.lwz r4,44(r1)
    6a68:	a8 8e 00 00 	l.ori r4,r14,0x0
    6a6c:	a8 6b 00 00 	l.ori r3,r11,0x0
    6a70:	04 00 0b 43 	l.jal 977c <__mcmp>
    6a74:	aa 4b 00 00 	l.ori r18,r11,0x0
    6a78:	bd 4b 00 00 	l.sfgtsi r11,0
    6a7c:	0c 00 00 3d 	l.bnf 6b70 <_dtoa_r+0x1ba8>
    6a80:	bc 2b 00 00 	l.sfnei r11,0
    6a84:	84 a1 00 18 	l.lwz r5,24(r1)
    6a88:	bc 05 00 39 	l.sfeqi r5,57
    6a8c:	10 00 00 41 	l.bf 6b90 <_dtoa_r+0x1bc8>
    6a90:	15 00 00 00 	l.nop 0x0
    6a94:	9c c5 00 01 	l.addi r6,r5,1
    6a98:	d4 01 30 08 	l.sw 8(r1),r6
    6a9c:	ab 82 00 00 	l.ori r28,r2,0x0
    6aa0:	84 41 00 08 	l.lwz r2,8(r1)
    6aa4:	9e d4 00 01 	l.addi r22,r20,1
    6aa8:	d8 14 10 00 	l.sb 0(r20),r2
    6aac:	d4 01 90 2c 	l.sw 44(r1),r18
    6ab0:	03 ff fd c4 	l.j 61c0 <_dtoa_r+0x11f8>
    6ab4:	a8 5a 00 00 	l.ori r2,r26,0x0
    6ab8:	84 61 00 18 	l.lwz r3,24(r1)
    6abc:	d4 01 70 2c 	l.sw 44(r1),r14
    6ac0:	bc 23 00 39 	l.sfnei r3,57
    6ac4:	a9 d8 00 00 	l.ori r14,r24,0x0
    6ac8:	0c 00 00 23 	l.bnf 6b54 <_dtoa_r+0x1b8c>
    6acc:	87 01 00 30 	l.lwz r24,48(r1)
    6ad0:	84 a1 00 18 	l.lwz r5,24(r1)
    6ad4:	9c 65 00 01 	l.addi r3,r5,1
    6ad8:	ab 82 00 00 	l.ori r28,r2,0x0
    6adc:	9e d4 00 01 	l.addi r22,r20,1
    6ae0:	d8 14 18 00 	l.sb 0(r20),r3
    6ae4:	03 ff fd b7 	l.j 61c0 <_dtoa_r+0x11f8>
    6ae8:	a8 5a 00 00 	l.ori r2,r26,0x0
    6aec:	d4 01 70 2c 	l.sw 44(r1),r14
    6af0:	ab 82 00 00 	l.ori r28,r2,0x0
    6af4:	a9 d8 00 00 	l.ori r14,r24,0x0
    6af8:	a8 5a 00 00 	l.ori r2,r26,0x0
    6afc:	03 ff fd 96 	l.j 6154 <_dtoa_r+0x118c>
    6b00:	87 01 00 30 	l.lwz r24,48(r1)
    6b04:	03 ff fd 91 	l.j 6148 <_dtoa_r+0x1180>
    6b08:	9f 80 00 01 	l.addi r28,r0,1
    6b0c:	84 61 00 18 	l.lwz r3,24(r1)
    6b10:	d4 01 70 2c 	l.sw 44(r1),r14
    6b14:	bc 03 00 39 	l.sfeqi r3,57
    6b18:	a9 d8 00 00 	l.ori r14,r24,0x0
    6b1c:	10 00 00 0e 	l.bf 6b54 <_dtoa_r+0x1b8c>
    6b20:	87 01 00 30 	l.lwz r24,48(r1)
    6b24:	bd b2 00 00 	l.sflesi r18,0
    6b28:	13 ff ff ec 	l.bf 6ad8 <_dtoa_r+0x1b10>
    6b2c:	84 81 00 00 	l.lwz r4,0(r1)
    6b30:	03 ff ff ea 	l.j 6ad8 <_dtoa_r+0x1b10>
    6b34:	9c 64 00 31 	l.addi r3,r4,49
    6b38:	d4 01 70 2c 	l.sw 44(r1),r14
    6b3c:	84 c1 00 18 	l.lwz r6,24(r1)
    6b40:	a9 d8 00 00 	l.ori r14,r24,0x0
    6b44:	d4 01 30 08 	l.sw 8(r1),r6
    6b48:	87 01 00 30 	l.lwz r24,48(r1)
    6b4c:	03 ff ff c1 	l.j 6a50 <_dtoa_r+0x1a88>
    6b50:	86 41 00 2c 	l.lwz r18,44(r1)
    6b54:	ab 82 00 00 	l.ori r28,r2,0x0
    6b58:	a8 5a 00 00 	l.ori r2,r26,0x0
    6b5c:	9c 80 00 39 	l.addi r4,r0,57
    6b60:	9e d4 00 01 	l.addi r22,r20,1
    6b64:	d8 14 20 00 	l.sb 0(r20),r4
    6b68:	03 ff fd 87 	l.j 6184 <_dtoa_r+0x11bc>
    6b6c:	9c a0 00 39 	l.addi r5,r0,57
    6b70:	13 ff ff cb 	l.bf 6a9c <_dtoa_r+0x1ad4>
    6b74:	84 81 00 18 	l.lwz r4,24(r1)
    6b78:	a4 64 00 01 	l.andi r3,r4,0x1
    6b7c:	bc 03 00 00 	l.sfeqi r3,0
    6b80:	13 ff ff c8 	l.bf 6aa0 <_dtoa_r+0x1ad8>
    6b84:	ab 82 00 00 	l.ori r28,r2,0x0
    6b88:	03 ff ff c0 	l.j 6a88 <_dtoa_r+0x1ac0>
    6b8c:	84 a1 00 18 	l.lwz r5,24(r1)
    6b90:	ab 82 00 00 	l.ori r28,r2,0x0
    6b94:	d4 01 90 2c 	l.sw 44(r1),r18
    6b98:	03 ff ff f1 	l.j 6b5c <_dtoa_r+0x1b94>
    6b9c:	a8 5a 00 00 	l.ori r2,r26,0x0
    6ba0:	bc 04 00 04 	l.sfeqi r4,4
    6ba4:	13 ff fb cb 	l.bf 5ad0 <_dtoa_r+0xb08>
    6ba8:	9c 80 00 3c 	l.addi r4,r0,60
    6bac:	03 ff fd aa 	l.j 6254 <_dtoa_r+0x128c>
    6bb0:	e0 64 18 02 	l.sub r3,r4,r3

00006bb4 <__sflush_r>:
    6bb4:	d7 e1 17 ec 	l.sw -20(r1),r2
    6bb8:	98 44 00 0c 	l.lhs r2,12(r4)
    6bbc:	d7 e1 a7 f8 	l.sw -8(r1),r20
    6bc0:	aa 83 00 00 	l.ori r20,r3,0x0
    6bc4:	a4 62 ff ff 	l.andi r3,r2,0xffff
    6bc8:	d7 e1 77 f0 	l.sw -16(r1),r14
    6bcc:	a9 c4 00 00 	l.ori r14,r4,0x0
    6bd0:	a4 83 00 08 	l.andi r4,r3,0x8
    6bd4:	d7 e1 4f fc 	l.sw -4(r1),r9
    6bd8:	d7 e1 0f e8 	l.sw -24(r1),r1
    6bdc:	d7 e1 97 f4 	l.sw -12(r1),r18
    6be0:	bc 24 00 00 	l.sfnei r4,0
    6be4:	10 00 00 44 	l.bf 6cf4 <__sflush_r+0x140>
    6be8:	9c 21 ff e8 	l.addi r1,r1,-24
    6bec:	a8 42 08 00 	l.ori r2,r2,0x800
    6bf0:	84 6e 00 04 	l.lwz r3,4(r14)
    6bf4:	bd 43 00 00 	l.sfgtsi r3,0
    6bf8:	0c 00 00 a3 	l.bnf 6e84 <__sflush_r+0x2d0>
    6bfc:	dc 0e 10 0c 	l.sh 12(r14),r2
    6c00:	85 6e 00 28 	l.lwz r11,40(r14)
    6c04:	bc 0b 00 00 	l.sfeqi r11,0
    6c08:	10 00 00 73 	l.bf 6dd4 <__sflush_r+0x220>
    6c0c:	a4 42 ff ff 	l.andi r2,r2,0xffff
    6c10:	9c 60 00 00 	l.addi r3,r0,0
    6c14:	a4 a2 10 00 	l.andi r5,r2,0x1000
    6c18:	86 54 00 00 	l.lwz r18,0(r20)
    6c1c:	a4 a5 ff ff 	l.andi r5,r5,0xffff
    6c20:	e4 05 18 00 	l.sfeq r5,r3
    6c24:	10 00 00 9e 	l.bf 6e9c <__sflush_r+0x2e8>
    6c28:	d4 14 18 00 	l.sw 0(r20),r3
    6c2c:	84 ae 00 50 	l.lwz r5,80(r14)
    6c30:	a4 42 00 04 	l.andi r2,r2,0x4
    6c34:	bc 02 00 00 	l.sfeqi r2,0
    6c38:	10 00 00 0a 	l.bf 6c60 <__sflush_r+0xac>
    6c3c:	a8 74 00 00 	l.ori r3,r20,0x0
    6c40:	84 6e 00 30 	l.lwz r3,48(r14)
    6c44:	84 4e 00 04 	l.lwz r2,4(r14)
    6c48:	bc 03 00 00 	l.sfeqi r3,0
    6c4c:	10 00 00 04 	l.bf 6c5c <__sflush_r+0xa8>
    6c50:	e0 a5 10 02 	l.sub r5,r5,r2
    6c54:	84 4e 00 3c 	l.lwz r2,60(r14)
    6c58:	e0 a5 10 02 	l.sub r5,r5,r2
    6c5c:	a8 74 00 00 	l.ori r3,r20,0x0
    6c60:	84 8e 00 1c 	l.lwz r4,28(r14)
    6c64:	48 00 58 00 	l.jalr r11
    6c68:	9c c0 00 00 	l.addi r6,r0,0
    6c6c:	bc 2b ff ff 	l.sfnei r11,-1
    6c70:	0c 00 00 62 	l.bnf 6df8 <__sflush_r+0x244>
    6c74:	9c 60 f7 ff 	l.addi r3,r0,-2049
    6c78:	98 4e 00 0c 	l.lhs r2,12(r14)
    6c7c:	84 8e 00 10 	l.lwz r4,16(r14)
    6c80:	e0 42 18 03 	l.and r2,r2,r3
    6c84:	d4 0e 20 00 	l.sw 0(r14),r4
    6c88:	a4 62 10 00 	l.andi r3,r2,0x1000
    6c8c:	dc 0e 10 0c 	l.sh 12(r14),r2
    6c90:	9c 40 00 00 	l.addi r2,r0,0
    6c94:	e4 23 10 00 	l.sfne r3,r2
    6c98:	10 00 00 79 	l.bf 6e7c <__sflush_r+0x2c8>
    6c9c:	d4 0e 10 04 	l.sw 4(r14),r2
    6ca0:	84 8e 00 30 	l.lwz r4,48(r14)
    6ca4:	bc 04 00 00 	l.sfeqi r4,0
    6ca8:	10 00 00 4b 	l.bf 6dd4 <__sflush_r+0x220>
    6cac:	d4 14 90 00 	l.sw 0(r20),r18
    6cb0:	9c 4e 00 40 	l.addi r2,r14,64
    6cb4:	e4 04 10 00 	l.sfeq r4,r2
    6cb8:	10 00 00 04 	l.bf 6cc8 <__sflush_r+0x114>
    6cbc:	15 00 00 00 	l.nop 0x0
    6cc0:	04 00 02 47 	l.jal 75dc <_free_r>
    6cc4:	a8 74 00 00 	l.ori r3,r20,0x0
    6cc8:	9c 80 00 00 	l.addi r4,r0,0
    6ccc:	d4 0e 20 30 	l.sw 48(r14),r4
    6cd0:	9c 21 00 18 	l.addi r1,r1,24
    6cd4:	a9 64 00 00 	l.ori r11,r4,0x0
    6cd8:	85 21 ff fc 	l.lwz r9,-4(r1)
    6cdc:	84 21 ff e8 	l.lwz r1,-24(r1)
    6ce0:	84 41 ff ec 	l.lwz r2,-20(r1)
    6ce4:	85 c1 ff f0 	l.lwz r14,-16(r1)
    6ce8:	86 41 ff f4 	l.lwz r18,-12(r1)
    6cec:	44 00 48 00 	l.jr r9
    6cf0:	86 81 ff f8 	l.lwz r20,-8(r1)
    6cf4:	86 4e 00 10 	l.lwz r18,16(r14)
    6cf8:	bc 12 00 00 	l.sfeqi r18,0
    6cfc:	10 00 00 36 	l.bf 6dd4 <__sflush_r+0x220>
    6d00:	a4 63 00 03 	l.andi r3,r3,0x3
    6d04:	84 4e 00 00 	l.lwz r2,0(r14)
    6d08:	bc 23 00 00 	l.sfnei r3,0
    6d0c:	d4 0e 90 00 	l.sw 0(r14),r18
    6d10:	e0 42 90 02 	l.sub r2,r2,r18
    6d14:	10 00 00 03 	l.bf 6d20 <__sflush_r+0x16c>
    6d18:	9c 60 00 00 	l.addi r3,r0,0
    6d1c:	84 6e 00 14 	l.lwz r3,20(r14)
    6d20:	bd a2 00 00 	l.sflesi r2,0
    6d24:	0c 00 00 07 	l.bnf 6d40 <__sflush_r+0x18c>
    6d28:	d4 0e 18 08 	l.sw 8(r14),r3
    6d2c:	00 00 00 2b 	l.j 6dd8 <__sflush_r+0x224>
    6d30:	9d 60 00 00 	l.addi r11,r0,0
    6d34:	bd 42 00 00 	l.sfgtsi r2,0
    6d38:	0c 00 00 28 	l.bnf 6dd8 <__sflush_r+0x224>
    6d3c:	9d 60 00 00 	l.addi r11,r0,0
    6d40:	a8 b2 00 00 	l.ori r5,r18,0x0
    6d44:	a8 c2 00 00 	l.ori r6,r2,0x0
    6d48:	85 6e 00 24 	l.lwz r11,36(r14)
    6d4c:	a8 74 00 00 	l.ori r3,r20,0x0
    6d50:	48 00 58 00 	l.jalr r11
    6d54:	84 8e 00 1c 	l.lwz r4,28(r14)
    6d58:	bd 4b 00 00 	l.sfgtsi r11,0
    6d5c:	e0 42 58 02 	l.sub r2,r2,r11
    6d60:	13 ff ff f5 	l.bf 6d34 <__sflush_r+0x180>
    6d64:	e2 52 58 00 	l.add r18,r18,r11
    6d68:	94 4e 00 0c 	l.lhz r2,12(r14)
    6d6c:	a8 42 00 40 	l.ori r2,r2,0x40
    6d70:	9d 60 ff ff 	l.addi r11,r0,-1
    6d74:	dc 0e 10 0c 	l.sh 12(r14),r2
    6d78:	9c 21 00 18 	l.addi r1,r1,24
    6d7c:	85 21 ff fc 	l.lwz r9,-4(r1)
    6d80:	84 21 ff e8 	l.lwz r1,-24(r1)
    6d84:	84 41 ff ec 	l.lwz r2,-20(r1)
    6d88:	85 c1 ff f0 	l.lwz r14,-16(r1)
    6d8c:	86 41 ff f4 	l.lwz r18,-12(r1)
    6d90:	44 00 48 00 	l.jr r9
    6d94:	86 81 ff f8 	l.lwz r20,-8(r1)
    6d98:	84 54 00 00 	l.lwz r2,0(r20)
    6d9c:	bc 22 00 00 	l.sfnei r2,0
    6da0:	0c 00 00 46 	l.bnf 6eb8 <__sflush_r+0x304>
    6da4:	ac 62 00 16 	l.xori r3,r2,22
    6da8:	e0 80 18 02 	l.sub r4,r0,r3
    6dac:	e0 64 18 04 	l.or r3,r4,r3
    6db0:	bd 63 00 00 	l.sfgesi r3,0
    6db4:	10 00 00 07 	l.bf 6dd0 <__sflush_r+0x21c>
    6db8:	ac 42 00 1d 	l.xori r2,r2,29
    6dbc:	e0 60 10 02 	l.sub r3,r0,r2
    6dc0:	e0 43 10 04 	l.or r2,r3,r2
    6dc4:	bd 82 00 00 	l.sfltsi r2,0
    6dc8:	13 ff ff e8 	l.bf 6d68 <__sflush_r+0x1b4>
    6dcc:	15 00 00 00 	l.nop 0x0
    6dd0:	d4 14 90 00 	l.sw 0(r20),r18
    6dd4:	9d 60 00 00 	l.addi r11,r0,0
    6dd8:	9c 21 00 18 	l.addi r1,r1,24
    6ddc:	85 21 ff fc 	l.lwz r9,-4(r1)
    6de0:	84 21 ff e8 	l.lwz r1,-24(r1)
    6de4:	84 41 ff ec 	l.lwz r2,-20(r1)
    6de8:	85 c1 ff f0 	l.lwz r14,-16(r1)
    6dec:	86 41 ff f4 	l.lwz r18,-12(r1)
    6df0:	44 00 48 00 	l.jr r9
    6df4:	86 81 ff f8 	l.lwz r20,-8(r1)
    6df8:	84 94 00 00 	l.lwz r4,0(r20)
    6dfc:	ac 44 00 1d 	l.xori r2,r4,29
    6e00:	e0 60 20 02 	l.sub r3,r0,r4
    6e04:	e0 a0 10 02 	l.sub r5,r0,r2
    6e08:	e0 63 20 04 	l.or r3,r3,r4
    6e0c:	e0 45 10 04 	l.or r2,r5,r2
    6e10:	ac 63 ff ff 	l.xori r3,r3,-1
    6e14:	ac 42 ff ff 	l.xori r2,r2,-1
    6e18:	b8 63 00 5f 	l.srli r3,r3,0x1f
    6e1c:	b8 42 00 5f 	l.srli r2,r2,0x1f
    6e20:	e0 43 10 04 	l.or r2,r3,r2
    6e24:	bc 22 00 00 	l.sfnei r2,0
    6e28:	10 00 00 07 	l.bf 6e44 <__sflush_r+0x290>
    6e2c:	ac 84 00 16 	l.xori r4,r4,22
    6e30:	e0 40 20 02 	l.sub r2,r0,r4
    6e34:	e0 82 20 04 	l.or r4,r2,r4
    6e38:	bd 64 00 00 	l.sfgesi r4,0
    6e3c:	0c 00 00 22 	l.bnf 6ec4 <__sflush_r+0x310>
    6e40:	15 00 00 00 	l.nop 0x0
    6e44:	98 4e 00 0c 	l.lhs r2,12(r14)
    6e48:	9c 80 f7 ff 	l.addi r4,r0,-2049
    6e4c:	84 ae 00 10 	l.lwz r5,16(r14)
    6e50:	e0 42 20 03 	l.and r2,r2,r4
    6e54:	d4 0e 28 00 	l.sw 0(r14),r5
    6e58:	a4 82 10 00 	l.andi r4,r2,0x1000
    6e5c:	dc 0e 10 0c 	l.sh 12(r14),r2
    6e60:	9c 40 00 00 	l.addi r2,r0,0
    6e64:	e4 24 10 00 	l.sfne r4,r2
    6e68:	0f ff ff 8e 	l.bnf 6ca0 <__sflush_r+0xec>
    6e6c:	d4 0e 10 04 	l.sw 4(r14),r2
    6e70:	bc 23 00 00 	l.sfnei r3,0
    6e74:	0f ff ff 8b 	l.bnf 6ca0 <__sflush_r+0xec>
    6e78:	15 00 00 00 	l.nop 0x0
    6e7c:	03 ff ff 89 	l.j 6ca0 <__sflush_r+0xec>
    6e80:	d4 0e 58 50 	l.sw 80(r14),r11
    6e84:	84 6e 00 3c 	l.lwz r3,60(r14)
    6e88:	bd 43 00 00 	l.sfgtsi r3,0
    6e8c:	13 ff ff 5d 	l.bf 6c00 <__sflush_r+0x4c>
    6e90:	9d 60 00 00 	l.addi r11,r0,0
    6e94:	03 ff ff d2 	l.j 6ddc <__sflush_r+0x228>
    6e98:	9c 21 00 18 	l.addi r1,r1,24
    6e9c:	a8 74 00 00 	l.ori r3,r20,0x0
    6ea0:	84 8e 00 1c 	l.lwz r4,28(r14)
    6ea4:	48 00 58 00 	l.jalr r11
    6ea8:	9c c0 00 01 	l.addi r6,r0,1
    6eac:	bc 2b ff ff 	l.sfnei r11,-1
    6eb0:	0f ff ff ba 	l.bnf 6d98 <__sflush_r+0x1e4>
    6eb4:	a8 ab 00 00 	l.ori r5,r11,0x0
    6eb8:	94 4e 00 0c 	l.lhz r2,12(r14)
    6ebc:	03 ff ff 5d 	l.j 6c30 <__sflush_r+0x7c>
    6ec0:	85 6e 00 28 	l.lwz r11,40(r14)
    6ec4:	94 4e 00 0c 	l.lhz r2,12(r14)
    6ec8:	a8 42 00 40 	l.ori r2,r2,0x40
    6ecc:	03 ff ff ab 	l.j 6d78 <__sflush_r+0x1c4>
    6ed0:	dc 0e 10 0c 	l.sh 12(r14),r2

00006ed4 <_fflush_r>:
    6ed4:	d7 e1 17 f4 	l.sw -12(r1),r2
    6ed8:	d7 e1 77 f8 	l.sw -8(r1),r14
    6edc:	d7 e1 4f fc 	l.sw -4(r1),r9
    6ee0:	d7 e1 0f f0 	l.sw -16(r1),r1
    6ee4:	bc 03 00 00 	l.sfeqi r3,0
    6ee8:	9c 21 ff f0 	l.addi r1,r1,-16
    6eec:	a8 43 00 00 	l.ori r2,r3,0x0
    6ef0:	10 00 00 06 	l.bf 6f08 <_fflush_r+0x34>
    6ef4:	a9 c4 00 00 	l.ori r14,r4,0x0
    6ef8:	84 83 00 38 	l.lwz r4,56(r3)
    6efc:	bc 24 00 00 	l.sfnei r4,0
    6f00:	0c 00 00 0f 	l.bnf 6f3c <_fflush_r+0x68>
    6f04:	15 00 00 00 	l.nop 0x0
    6f08:	98 6e 00 0c 	l.lhs r3,12(r14)
    6f0c:	bc 03 00 00 	l.sfeqi r3,0
    6f10:	10 00 00 05 	l.bf 6f24 <_fflush_r+0x50>
    6f14:	9d 60 00 00 	l.addi r11,r0,0
    6f18:	a8 62 00 00 	l.ori r3,r2,0x0
    6f1c:	07 ff ff 26 	l.jal 6bb4 <__sflush_r>
    6f20:	a8 8e 00 00 	l.ori r4,r14,0x0
    6f24:	9c 21 00 10 	l.addi r1,r1,16
    6f28:	85 21 ff fc 	l.lwz r9,-4(r1)
    6f2c:	84 21 ff f0 	l.lwz r1,-16(r1)
    6f30:	84 41 ff f4 	l.lwz r2,-12(r1)
    6f34:	44 00 48 00 	l.jr r9
    6f38:	85 c1 ff f8 	l.lwz r14,-8(r1)
    6f3c:	04 00 01 1d 	l.jal 73b0 <__sinit>
    6f40:	15 00 00 00 	l.nop 0x0
    6f44:	03 ff ff f2 	l.j 6f0c <_fflush_r+0x38>
    6f48:	98 6e 00 0c 	l.lhs r3,12(r14)

00006f4c <fflush>:
    6f4c:	d7 e1 17 f8 	l.sw -8(r1),r2
    6f50:	d7 e1 4f fc 	l.sw -4(r1),r9
    6f54:	d7 e1 0f f4 	l.sw -12(r1),r1
    6f58:	bc 23 00 00 	l.sfnei r3,0
    6f5c:	9c 21 ff f4 	l.addi r1,r1,-12
    6f60:	0c 00 00 0c 	l.bnf 6f90 <fflush+0x44>
    6f64:	a8 43 00 00 	l.ori r2,r3,0x0
    6f68:	04 00 02 d8 	l.jal 7ac8 <__getreent>
    6f6c:	15 00 00 00 	l.nop 0x0
    6f70:	a8 82 00 00 	l.ori r4,r2,0x0
    6f74:	07 ff ff d8 	l.jal 6ed4 <_fflush_r>
    6f78:	a8 6b 00 00 	l.ori r3,r11,0x0
    6f7c:	9c 21 00 0c 	l.addi r1,r1,12
    6f80:	85 21 ff fc 	l.lwz r9,-4(r1)
    6f84:	84 21 ff f4 	l.lwz r1,-12(r1)
    6f88:	44 00 48 00 	l.jr r9
    6f8c:	84 41 ff f8 	l.lwz r2,-8(r1)
    6f90:	18 40 00 01 	l.movhi r2,0x1
    6f94:	18 80 00 00 	l.movhi r4,0x0
    6f98:	a8 42 14 7c 	l.ori r2,r2,0x147c
    6f9c:	a8 84 6e d4 	l.ori r4,r4,0x6ed4
    6fa0:	04 00 02 95 	l.jal 79f4 <_fwalk_reent>
    6fa4:	84 62 00 00 	l.lwz r3,0(r2)
    6fa8:	9c 21 00 0c 	l.addi r1,r1,12
    6fac:	85 21 ff fc 	l.lwz r9,-4(r1)
    6fb0:	84 21 ff f4 	l.lwz r1,-12(r1)
    6fb4:	44 00 48 00 	l.jr r9
    6fb8:	84 41 ff f8 	l.lwz r2,-8(r1)

00006fbc <__fp_lock>:
    6fbc:	d7 e1 0f fc 	l.sw -4(r1),r1
    6fc0:	9c 21 ff fc 	l.addi r1,r1,-4
    6fc4:	9d 60 00 00 	l.addi r11,r0,0
    6fc8:	9c 21 00 04 	l.addi r1,r1,4
    6fcc:	44 00 48 00 	l.jr r9
    6fd0:	84 21 ff fc 	l.lwz r1,-4(r1)

00006fd4 <__fp_unlock>:
    6fd4:	d7 e1 0f fc 	l.sw -4(r1),r1
    6fd8:	9c 21 ff fc 	l.addi r1,r1,-4
    6fdc:	9d 60 00 00 	l.addi r11,r0,0
    6fe0:	9c 21 00 04 	l.addi r1,r1,4
    6fe4:	44 00 48 00 	l.jr r9
    6fe8:	84 21 ff fc 	l.lwz r1,-4(r1)

00006fec <_cleanup_r>:
    6fec:	18 80 00 00 	l.movhi r4,0x0
    6ff0:	d7 e1 4f fc 	l.sw -4(r1),r9
    6ff4:	d7 e1 0f f8 	l.sw -8(r1),r1
    6ff8:	a8 84 b9 a4 	l.ori r4,r4,0xb9a4
    6ffc:	04 00 02 7e 	l.jal 79f4 <_fwalk_reent>
    7000:	9c 21 ff f8 	l.addi r1,r1,-8
    7004:	9c 21 00 08 	l.addi r1,r1,8
    7008:	85 21 ff fc 	l.lwz r9,-4(r1)
    700c:	44 00 48 00 	l.jr r9
    7010:	84 21 ff f8 	l.lwz r1,-8(r1)

00007014 <__sinit.part.1>:
    7014:	18 80 00 00 	l.movhi r4,0x0
    7018:	d7 e1 a7 e4 	l.sw -28(r1),r20
    701c:	a8 84 6f ec 	l.ori r4,r4,0x6fec
    7020:	aa 83 00 00 	l.ori r20,r3,0x0
    7024:	d7 e1 4f fc 	l.sw -4(r1),r9
    7028:	d7 e1 17 d8 	l.sw -40(r1),r2
    702c:	d7 e1 77 dc 	l.sw -36(r1),r14
    7030:	d7 e1 97 e0 	l.sw -32(r1),r18
    7034:	d7 e1 b7 e8 	l.sw -24(r1),r22
    7038:	d7 e1 c7 ec 	l.sw -20(r1),r24
    703c:	d7 e1 d7 f0 	l.sw -16(r1),r26
    7040:	d7 e1 e7 f4 	l.sw -12(r1),r28
    7044:	d7 e1 f7 f8 	l.sw -8(r1),r30
    7048:	d7 e1 0f d4 	l.sw -44(r1),r1
    704c:	9c 40 00 00 	l.addi r2,r0,0
    7050:	d4 14 20 3c 	l.sw 60(r20),r4
    7054:	9c 63 02 ec 	l.addi r3,r3,748
    7058:	9c 80 00 03 	l.addi r4,r0,3
    705c:	85 d4 00 04 	l.lwz r14,4(r20)
    7060:	9c c0 00 04 	l.addi r6,r0,4
    7064:	d4 14 12 e0 	l.sw 736(r20),r2
    7068:	d4 14 22 e4 	l.sw 740(r20),r4
    706c:	d4 14 1a e8 	l.sw 744(r20),r3
    7070:	9c 21 ff d4 	l.addi r1,r1,-44
    7074:	9c 6e 00 5c 	l.addi r3,r14,92
    7078:	a8 82 00 00 	l.ori r4,r2,0x0
    707c:	d4 0e 10 00 	l.sw 0(r14),r2
    7080:	d4 0e 10 04 	l.sw 4(r14),r2
    7084:	d4 0e 10 08 	l.sw 8(r14),r2
    7088:	dc 0e 30 0c 	l.sh 12(r14),r6
    708c:	d4 0e 10 64 	l.sw 100(r14),r2
    7090:	dc 0e 10 0e 	l.sh 14(r14),r2
    7094:	d4 0e 10 10 	l.sw 16(r14),r2
    7098:	d4 0e 10 14 	l.sw 20(r14),r2
    709c:	d4 0e 10 18 	l.sw 24(r14),r2
    70a0:	9c a0 00 08 	l.addi r5,r0,8
    70a4:	1b 80 00 00 	l.movhi r28,0x0
    70a8:	1b 40 00 00 	l.movhi r26,0x0
    70ac:	1b 00 00 00 	l.movhi r24,0x0
    70b0:	04 00 06 70 	l.jal 8a70 <memset>
    70b4:	1a c0 00 00 	l.movhi r22,0x0
    70b8:	ab 9c a0 f0 	l.ori r28,r28,0xa0f0
    70bc:	ab 5a a1 70 	l.ori r26,r26,0xa170
    70c0:	ab 18 a2 00 	l.ori r24,r24,0xa200
    70c4:	aa d6 a2 68 	l.ori r22,r22,0xa268
    70c8:	86 54 00 08 	l.lwz r18,8(r20)
    70cc:	9f c0 00 01 	l.addi r30,r0,1
    70d0:	9c c0 00 09 	l.addi r6,r0,9
    70d4:	d4 0e e0 20 	l.sw 32(r14),r28
    70d8:	d4 0e d0 24 	l.sw 36(r14),r26
    70dc:	d4 0e c0 28 	l.sw 40(r14),r24
    70e0:	d4 0e b0 2c 	l.sw 44(r14),r22
    70e4:	d4 0e 70 1c 	l.sw 28(r14),r14
    70e8:	9c 72 00 5c 	l.addi r3,r18,92
    70ec:	a8 82 00 00 	l.ori r4,r2,0x0
    70f0:	d4 12 10 00 	l.sw 0(r18),r2
    70f4:	d4 12 10 04 	l.sw 4(r18),r2
    70f8:	d4 12 10 08 	l.sw 8(r18),r2
    70fc:	dc 12 30 0c 	l.sh 12(r18),r6
    7100:	d4 12 10 64 	l.sw 100(r18),r2
    7104:	dc 12 f0 0e 	l.sh 14(r18),r30
    7108:	d4 12 10 10 	l.sw 16(r18),r2
    710c:	d4 12 10 14 	l.sw 20(r18),r2
    7110:	d4 12 10 18 	l.sw 24(r18),r2
    7114:	04 00 06 57 	l.jal 8a70 <memset>
    7118:	9c a0 00 08 	l.addi r5,r0,8
    711c:	9c 60 00 12 	l.addi r3,r0,18
    7120:	85 d4 00 0c 	l.lwz r14,12(r20)
    7124:	9c c0 00 02 	l.addi r6,r0,2
    7128:	d4 12 e0 20 	l.sw 32(r18),r28
    712c:	d4 12 d0 24 	l.sw 36(r18),r26
    7130:	d4 12 c0 28 	l.sw 40(r18),r24
    7134:	d4 12 b0 2c 	l.sw 44(r18),r22
    7138:	d4 12 90 1c 	l.sw 28(r18),r18
    713c:	d4 0e 10 00 	l.sw 0(r14),r2
    7140:	d4 0e 10 04 	l.sw 4(r14),r2
    7144:	d4 0e 10 08 	l.sw 8(r14),r2
    7148:	dc 0e 18 0c 	l.sh 12(r14),r3
    714c:	d4 0e 10 64 	l.sw 100(r14),r2
    7150:	d4 0e 10 10 	l.sw 16(r14),r2
    7154:	d4 0e 10 14 	l.sw 20(r14),r2
    7158:	d4 0e 10 18 	l.sw 24(r14),r2
    715c:	dc 0e 30 0e 	l.sh 14(r14),r6
    7160:	9c 6e 00 5c 	l.addi r3,r14,92
    7164:	a8 82 00 00 	l.ori r4,r2,0x0
    7168:	04 00 06 42 	l.jal 8a70 <memset>
    716c:	9c a0 00 08 	l.addi r5,r0,8
    7170:	d4 0e e0 20 	l.sw 32(r14),r28
    7174:	d4 0e d0 24 	l.sw 36(r14),r26
    7178:	d4 0e c0 28 	l.sw 40(r14),r24
    717c:	d4 0e b0 2c 	l.sw 44(r14),r22
    7180:	d4 0e 70 1c 	l.sw 28(r14),r14
    7184:	d4 14 f0 38 	l.sw 56(r20),r30
    7188:	9c 21 00 2c 	l.addi r1,r1,44
    718c:	85 21 ff fc 	l.lwz r9,-4(r1)
    7190:	84 21 ff d4 	l.lwz r1,-44(r1)
    7194:	84 41 ff d8 	l.lwz r2,-40(r1)
    7198:	85 c1 ff dc 	l.lwz r14,-36(r1)
    719c:	86 41 ff e0 	l.lwz r18,-32(r1)
    71a0:	86 81 ff e4 	l.lwz r20,-28(r1)
    71a4:	86 c1 ff e8 	l.lwz r22,-24(r1)
    71a8:	87 01 ff ec 	l.lwz r24,-20(r1)
    71ac:	87 41 ff f0 	l.lwz r26,-16(r1)
    71b0:	87 81 ff f4 	l.lwz r28,-12(r1)
    71b4:	44 00 48 00 	l.jr r9
    71b8:	87 c1 ff f8 	l.lwz r30,-8(r1)

000071bc <__sfmoreglue>:
    71bc:	d7 e1 17 f0 	l.sw -16(r1),r2
    71c0:	d7 e1 77 f4 	l.sw -12(r1),r14
    71c4:	9c 44 ff ff 	l.addi r2,r4,-1
    71c8:	9d c0 00 68 	l.addi r14,r0,104
    71cc:	d7 e1 97 f8 	l.sw -8(r1),r18
    71d0:	e1 c2 73 06 	l.mul r14,r2,r14
    71d4:	d7 e1 4f fc 	l.sw -4(r1),r9
    71d8:	d7 e1 0f ec 	l.sw -20(r1),r1
    71dc:	aa 44 00 00 	l.ori r18,r4,0x0
    71e0:	9c 21 ff ec 	l.addi r1,r1,-20
    71e4:	04 00 03 15 	l.jal 7e38 <_malloc_r>
    71e8:	9c 8e 00 74 	l.addi r4,r14,116
    71ec:	bc 0b 00 00 	l.sfeqi r11,0
    71f0:	10 00 00 09 	l.bf 7214 <__sfmoreglue+0x58>
    71f4:	a8 4b 00 00 	l.ori r2,r11,0x0
    71f8:	9c 6b 00 0c 	l.addi r3,r11,12
    71fc:	9c 80 00 00 	l.addi r4,r0,0
    7200:	d4 0b 90 04 	l.sw 4(r11),r18
    7204:	d4 0b 20 00 	l.sw 0(r11),r4
    7208:	d4 0b 18 08 	l.sw 8(r11),r3
    720c:	04 00 06 19 	l.jal 8a70 <memset>
    7210:	9c ae 00 68 	l.addi r5,r14,104
    7214:	9c 21 00 14 	l.addi r1,r1,20
    7218:	a9 62 00 00 	l.ori r11,r2,0x0
    721c:	85 21 ff fc 	l.lwz r9,-4(r1)
    7220:	84 21 ff ec 	l.lwz r1,-20(r1)
    7224:	84 41 ff f0 	l.lwz r2,-16(r1)
    7228:	85 c1 ff f4 	l.lwz r14,-12(r1)
    722c:	44 00 48 00 	l.jr r9
    7230:	86 41 ff f8 	l.lwz r18,-8(r1)

00007234 <__sfp>:
    7234:	d7 e1 17 f0 	l.sw -16(r1),r2
    7238:	18 40 00 01 	l.movhi r2,0x1
    723c:	d7 e1 77 f4 	l.sw -12(r1),r14
    7240:	a8 42 14 7c 	l.ori r2,r2,0x147c
    7244:	d7 e1 97 f8 	l.sw -8(r1),r18
    7248:	85 c2 00 00 	l.lwz r14,0(r2)
    724c:	d7 e1 4f fc 	l.sw -4(r1),r9
    7250:	84 4e 00 38 	l.lwz r2,56(r14)
    7254:	d7 e1 0f ec 	l.sw -20(r1),r1
    7258:	bc 22 00 00 	l.sfnei r2,0
    725c:	9c 21 ff ec 	l.addi r1,r1,-20
    7260:	10 00 00 04 	l.bf 7270 <__sfp+0x3c>
    7264:	aa 43 00 00 	l.ori r18,r3,0x0
    7268:	07 ff ff 6b 	l.jal 7014 <__sinit.part.1>
    726c:	a8 6e 00 00 	l.ori r3,r14,0x0
    7270:	9d ce 02 e0 	l.addi r14,r14,736
    7274:	84 ae 00 04 	l.lwz r5,4(r14)
    7278:	9c a5 ff ff 	l.addi r5,r5,-1
    727c:	bd 85 00 00 	l.sfltsi r5,0
    7280:	10 00 00 11 	l.bf 72c4 <__sfp+0x90>
    7284:	84 4e 00 08 	l.lwz r2,8(r14)
    7288:	98 62 00 0c 	l.lhs r3,12(r2)
    728c:	bc 03 00 00 	l.sfeqi r3,0
    7290:	10 00 00 13 	l.bf 72dc <__sfp+0xa8>
    7294:	9c 82 00 74 	l.addi r4,r2,116
    7298:	00 00 00 07 	l.j 72b4 <__sfp+0x80>
    729c:	9c a5 ff ff 	l.addi r5,r5,-1
    72a0:	98 c4 ff 98 	l.lhs r6,-104(r4)
    72a4:	bc 06 00 00 	l.sfeqi r6,0
    72a8:	10 00 00 0e 	l.bf 72e0 <__sfp+0xac>
    72ac:	9c 60 ff ff 	l.addi r3,r0,-1
    72b0:	9c a5 ff ff 	l.addi r5,r5,-1
    72b4:	9c 44 ff f4 	l.addi r2,r4,-12
    72b8:	bc 25 ff ff 	l.sfnei r5,-1
    72bc:	13 ff ff f9 	l.bf 72a0 <__sfp+0x6c>
    72c0:	9c 84 00 68 	l.addi r4,r4,104
    72c4:	84 4e 00 00 	l.lwz r2,0(r14)
    72c8:	bc 22 00 00 	l.sfnei r2,0
    72cc:	0c 00 00 21 	l.bnf 7350 <__sfp+0x11c>
    72d0:	15 00 00 00 	l.nop 0x0
    72d4:	03 ff ff e8 	l.j 7274 <__sfp+0x40>
    72d8:	a9 c2 00 00 	l.ori r14,r2,0x0
    72dc:	9c 60 ff ff 	l.addi r3,r0,-1
    72e0:	9c 80 00 00 	l.addi r4,r0,0
    72e4:	dc 02 18 0e 	l.sh 14(r2),r3
    72e8:	9c 60 00 01 	l.addi r3,r0,1
    72ec:	9c a0 00 08 	l.addi r5,r0,8
    72f0:	dc 02 18 0c 	l.sh 12(r2),r3
    72f4:	9c 60 00 00 	l.addi r3,r0,0
    72f8:	d4 02 18 64 	l.sw 100(r2),r3
    72fc:	d4 02 18 00 	l.sw 0(r2),r3
    7300:	d4 02 18 08 	l.sw 8(r2),r3
    7304:	d4 02 18 04 	l.sw 4(r2),r3
    7308:	d4 02 18 10 	l.sw 16(r2),r3
    730c:	d4 02 18 14 	l.sw 20(r2),r3
    7310:	d4 02 18 18 	l.sw 24(r2),r3
    7314:	04 00 05 d7 	l.jal 8a70 <memset>
    7318:	9c 62 00 5c 	l.addi r3,r2,92
    731c:	9c 60 00 00 	l.addi r3,r0,0
    7320:	a9 62 00 00 	l.ori r11,r2,0x0
    7324:	d4 02 18 30 	l.sw 48(r2),r3
    7328:	d4 02 18 34 	l.sw 52(r2),r3
    732c:	d4 02 18 44 	l.sw 68(r2),r3
    7330:	d4 02 18 48 	l.sw 72(r2),r3
    7334:	9c 21 00 14 	l.addi r1,r1,20
    7338:	85 21 ff fc 	l.lwz r9,-4(r1)
    733c:	84 21 ff ec 	l.lwz r1,-20(r1)
    7340:	84 41 ff f0 	l.lwz r2,-16(r1)
    7344:	85 c1 ff f4 	l.lwz r14,-12(r1)
    7348:	44 00 48 00 	l.jr r9
    734c:	86 41 ff f8 	l.lwz r18,-8(r1)
    7350:	a8 72 00 00 	l.ori r3,r18,0x0
    7354:	07 ff ff 9a 	l.jal 71bc <__sfmoreglue>
    7358:	9c 80 00 04 	l.addi r4,r0,4
    735c:	bc 0b 00 00 	l.sfeqi r11,0
    7360:	10 00 00 04 	l.bf 7370 <__sfp+0x13c>
    7364:	d4 0e 58 00 	l.sw 0(r14),r11
    7368:	03 ff ff c3 	l.j 7274 <__sfp+0x40>
    736c:	a9 cb 00 00 	l.ori r14,r11,0x0
    7370:	9c 40 00 0c 	l.addi r2,r0,12
    7374:	03 ff ff f0 	l.j 7334 <__sfp+0x100>
    7378:	d4 12 10 00 	l.sw 0(r18),r2

0000737c <_cleanup>:
    737c:	18 60 00 01 	l.movhi r3,0x1
    7380:	18 80 00 00 	l.movhi r4,0x0
    7384:	a8 63 14 7c 	l.ori r3,r3,0x147c
    7388:	d7 e1 4f fc 	l.sw -4(r1),r9
    738c:	d7 e1 0f f8 	l.sw -8(r1),r1
    7390:	a8 84 b9 a4 	l.ori r4,r4,0xb9a4
    7394:	9c 21 ff f8 	l.addi r1,r1,-8
    7398:	04 00 01 97 	l.jal 79f4 <_fwalk_reent>
    739c:	84 63 00 00 	l.lwz r3,0(r3)
    73a0:	9c 21 00 08 	l.addi r1,r1,8
    73a4:	85 21 ff fc 	l.lwz r9,-4(r1)
    73a8:	44 00 48 00 	l.jr r9
    73ac:	84 21 ff f8 	l.lwz r1,-8(r1)

000073b0 <__sinit>:
    73b0:	84 83 00 38 	l.lwz r4,56(r3)
    73b4:	d7 e1 4f fc 	l.sw -4(r1),r9
    73b8:	d7 e1 0f f8 	l.sw -8(r1),r1
    73bc:	bc 24 00 00 	l.sfnei r4,0
    73c0:	10 00 00 04 	l.bf 73d0 <__sinit+0x20>
    73c4:	9c 21 ff f8 	l.addi r1,r1,-8
    73c8:	07 ff ff 13 	l.jal 7014 <__sinit.part.1>
    73cc:	15 00 00 00 	l.nop 0x0
    73d0:	9c 21 00 08 	l.addi r1,r1,8
    73d4:	85 21 ff fc 	l.lwz r9,-4(r1)
    73d8:	44 00 48 00 	l.jr r9
    73dc:	84 21 ff f8 	l.lwz r1,-8(r1)

000073e0 <__sfp_lock_acquire>:
    73e0:	d7 e1 0f fc 	l.sw -4(r1),r1
    73e4:	9c 21 ff fc 	l.addi r1,r1,-4
    73e8:	9c 21 00 04 	l.addi r1,r1,4
    73ec:	44 00 48 00 	l.jr r9
    73f0:	84 21 ff fc 	l.lwz r1,-4(r1)

000073f4 <__sfp_lock_release>:
    73f4:	d7 e1 0f fc 	l.sw -4(r1),r1
    73f8:	9c 21 ff fc 	l.addi r1,r1,-4
    73fc:	9c 21 00 04 	l.addi r1,r1,4
    7400:	44 00 48 00 	l.jr r9
    7404:	84 21 ff fc 	l.lwz r1,-4(r1)

00007408 <__sinit_lock_acquire>:
    7408:	d7 e1 0f fc 	l.sw -4(r1),r1
    740c:	9c 21 ff fc 	l.addi r1,r1,-4
    7410:	9c 21 00 04 	l.addi r1,r1,4
    7414:	44 00 48 00 	l.jr r9
    7418:	84 21 ff fc 	l.lwz r1,-4(r1)

0000741c <__sinit_lock_release>:
    741c:	d7 e1 0f fc 	l.sw -4(r1),r1
    7420:	9c 21 ff fc 	l.addi r1,r1,-4
    7424:	9c 21 00 04 	l.addi r1,r1,4
    7428:	44 00 48 00 	l.jr r9
    742c:	84 21 ff fc 	l.lwz r1,-4(r1)

00007430 <__fp_lock_all>:
    7430:	d7 e1 4f fc 	l.sw -4(r1),r9
    7434:	d7 e1 0f f8 	l.sw -8(r1),r1
    7438:	04 00 01 a4 	l.jal 7ac8 <__getreent>
    743c:	9c 21 ff f8 	l.addi r1,r1,-8
    7440:	18 80 00 00 	l.movhi r4,0x0
    7444:	a8 6b 00 00 	l.ori r3,r11,0x0
    7448:	04 00 01 35 	l.jal 791c <_fwalk>
    744c:	a8 84 6f bc 	l.ori r4,r4,0x6fbc
    7450:	9c 21 00 08 	l.addi r1,r1,8
    7454:	85 21 ff fc 	l.lwz r9,-4(r1)
    7458:	44 00 48 00 	l.jr r9
    745c:	84 21 ff f8 	l.lwz r1,-8(r1)

00007460 <__fp_unlock_all>:
    7460:	d7 e1 4f fc 	l.sw -4(r1),r9
    7464:	d7 e1 0f f8 	l.sw -8(r1),r1
    7468:	04 00 01 98 	l.jal 7ac8 <__getreent>
    746c:	9c 21 ff f8 	l.addi r1,r1,-8
    7470:	18 80 00 00 	l.movhi r4,0x0
    7474:	a8 6b 00 00 	l.ori r3,r11,0x0
    7478:	04 00 01 29 	l.jal 791c <_fwalk>
    747c:	a8 84 6f d4 	l.ori r4,r4,0x6fd4
    7480:	9c 21 00 08 	l.addi r1,r1,8
    7484:	85 21 ff fc 	l.lwz r9,-4(r1)
    7488:	44 00 48 00 	l.jr r9
    748c:	84 21 ff f8 	l.lwz r1,-8(r1)

00007490 <_malloc_trim_r>:
    7490:	d7 e1 a7 f8 	l.sw -8(r1),r20
    7494:	1a 80 00 01 	l.movhi r20,0x1
    7498:	d7 e1 17 ec 	l.sw -20(r1),r2
    749c:	d7 e1 77 f0 	l.sw -16(r1),r14
    74a0:	d7 e1 97 f4 	l.sw -12(r1),r18
    74a4:	d7 e1 4f fc 	l.sw -4(r1),r9
    74a8:	d7 e1 0f e8 	l.sw -24(r1),r1
    74ac:	9c 21 ff e8 	l.addi r1,r1,-24
    74b0:	aa 94 25 00 	l.ori r20,r20,0x2500
    74b4:	a8 44 00 00 	l.ori r2,r4,0x0
    74b8:	04 00 05 c8 	l.jal 8bd8 <__malloc_lock>
    74bc:	aa 43 00 00 	l.ori r18,r3,0x0
    74c0:	84 74 00 08 	l.lwz r3,8(r20)
    74c4:	85 c3 00 04 	l.lwz r14,4(r3)
    74c8:	9c 60 ff fc 	l.addi r3,r0,-4
    74cc:	e1 ce 18 03 	l.and r14,r14,r3
    74d0:	9c 60 f0 00 	l.addi r3,r0,-4096
    74d4:	e0 4e 10 02 	l.sub r2,r14,r2
    74d8:	9c 42 0f ef 	l.addi r2,r2,4079
    74dc:	e0 42 18 03 	l.and r2,r2,r3
    74e0:	e0 42 18 00 	l.add r2,r2,r3
    74e4:	bd 42 0f ff 	l.sfgtsi r2,4095
    74e8:	0c 00 00 09 	l.bnf 750c <_malloc_trim_r+0x7c>
    74ec:	a8 72 00 00 	l.ori r3,r18,0x0
    74f0:	04 00 18 da 	l.jal d858 <_sbrk_r>
    74f4:	9c 80 00 00 	l.addi r4,r0,0
    74f8:	84 74 00 08 	l.lwz r3,8(r20)
    74fc:	e0 63 70 00 	l.add r3,r3,r14
    7500:	e4 2b 18 00 	l.sfne r11,r3
    7504:	0c 00 00 0d 	l.bnf 7538 <_malloc_trim_r+0xa8>
    7508:	a8 72 00 00 	l.ori r3,r18,0x0
    750c:	04 00 05 da 	l.jal 8c74 <__malloc_unlock>
    7510:	a8 72 00 00 	l.ori r3,r18,0x0
    7514:	9c 21 00 18 	l.addi r1,r1,24
    7518:	9d 60 00 00 	l.addi r11,r0,0
    751c:	85 21 ff fc 	l.lwz r9,-4(r1)
    7520:	84 21 ff e8 	l.lwz r1,-24(r1)
    7524:	84 41 ff ec 	l.lwz r2,-20(r1)
    7528:	85 c1 ff f0 	l.lwz r14,-16(r1)
    752c:	86 41 ff f4 	l.lwz r18,-12(r1)
    7530:	44 00 48 00 	l.jr r9
    7534:	86 81 ff f8 	l.lwz r20,-8(r1)
    7538:	04 00 18 c8 	l.jal d858 <_sbrk_r>
    753c:	e0 80 10 02 	l.sub r4,r0,r2
    7540:	bc 2b ff ff 	l.sfnei r11,-1
    7544:	0c 00 00 15 	l.bnf 7598 <_malloc_trim_r+0x108>
    7548:	18 80 00 01 	l.movhi r4,0x1
    754c:	e1 ce 10 02 	l.sub r14,r14,r2
    7550:	a8 84 2d 64 	l.ori r4,r4,0x2d64
    7554:	84 b4 00 08 	l.lwz r5,8(r20)
    7558:	84 64 00 00 	l.lwz r3,0(r4)
    755c:	a9 ce 00 01 	l.ori r14,r14,0x1
    7560:	e0 43 10 02 	l.sub r2,r3,r2
    7564:	d4 05 70 04 	l.sw 4(r5),r14
    7568:	a8 72 00 00 	l.ori r3,r18,0x0
    756c:	04 00 05 c2 	l.jal 8c74 <__malloc_unlock>
    7570:	d4 04 10 00 	l.sw 0(r4),r2
    7574:	9c 21 00 18 	l.addi r1,r1,24
    7578:	9d 60 00 01 	l.addi r11,r0,1
    757c:	85 21 ff fc 	l.lwz r9,-4(r1)
    7580:	84 21 ff e8 	l.lwz r1,-24(r1)
    7584:	84 41 ff ec 	l.lwz r2,-20(r1)
    7588:	85 c1 ff f0 	l.lwz r14,-16(r1)
    758c:	86 41 ff f4 	l.lwz r18,-12(r1)
    7590:	44 00 48 00 	l.jr r9
    7594:	86 81 ff f8 	l.lwz r20,-8(r1)
    7598:	a8 72 00 00 	l.ori r3,r18,0x0
    759c:	04 00 18 af 	l.jal d858 <_sbrk_r>
    75a0:	9c 80 00 00 	l.addi r4,r0,0
    75a4:	84 74 00 08 	l.lwz r3,8(r20)
    75a8:	e0 4b 18 02 	l.sub r2,r11,r3
    75ac:	bd a2 00 0f 	l.sflesi r2,15
    75b0:	13 ff ff d7 	l.bf 750c <_malloc_trim_r+0x7c>
    75b4:	18 80 00 01 	l.movhi r4,0x1
    75b8:	a8 42 00 01 	l.ori r2,r2,0x1
    75bc:	a8 84 24 f8 	l.ori r4,r4,0x24f8
    75c0:	d4 03 10 04 	l.sw 4(r3),r2
    75c4:	84 84 00 00 	l.lwz r4,0(r4)
    75c8:	18 40 00 01 	l.movhi r2,0x1
    75cc:	e1 6b 20 02 	l.sub r11,r11,r4
    75d0:	a8 42 2d 64 	l.ori r2,r2,0x2d64
    75d4:	03 ff ff ce 	l.j 750c <_malloc_trim_r+0x7c>
    75d8:	d4 02 58 00 	l.sw 0(r2),r11

000075dc <_free_r>:
    75dc:	d7 e1 77 f8 	l.sw -8(r1),r14
    75e0:	d7 e1 4f fc 	l.sw -4(r1),r9
    75e4:	d7 e1 0f f0 	l.sw -16(r1),r1
    75e8:	d7 e1 17 f4 	l.sw -12(r1),r2
    75ec:	bc 04 00 00 	l.sfeqi r4,0
    75f0:	9c 21 ff f0 	l.addi r1,r1,-16
    75f4:	10 00 00 4f 	l.bf 7730 <_free_r+0x154>
    75f8:	a9 c3 00 00 	l.ori r14,r3,0x0
    75fc:	04 00 05 77 	l.jal 8bd8 <__malloc_lock>
    7600:	a8 44 00 00 	l.ori r2,r4,0x0
    7604:	84 62 ff fc 	l.lwz r3,-4(r2)
    7608:	9c 80 ff fe 	l.addi r4,r0,-2
    760c:	19 00 00 01 	l.movhi r8,0x1
    7610:	e0 a3 20 03 	l.and r5,r3,r4
    7614:	9c e2 ff f8 	l.addi r7,r2,-8
    7618:	a9 08 25 00 	l.ori r8,r8,0x2500
    761c:	e0 c7 28 00 	l.add r6,r7,r5
    7620:	85 68 00 08 	l.lwz r11,8(r8)
    7624:	84 86 00 04 	l.lwz r4,4(r6)
    7628:	e4 2b 30 00 	l.sfne r11,r6
    762c:	9d 60 ff fc 	l.addi r11,r0,-4
    7630:	a4 63 00 01 	l.andi r3,r3,0x1
    7634:	0c 00 00 63 	l.bnf 77c0 <_free_r+0x1e4>
    7638:	e0 84 58 03 	l.and r4,r4,r11
    763c:	bc 23 00 00 	l.sfnei r3,0
    7640:	10 00 00 0e 	l.bf 7678 <_free_r+0x9c>
    7644:	d4 06 20 04 	l.sw 4(r6),r4
    7648:	84 42 ff f8 	l.lwz r2,-8(r2)
    764c:	18 60 00 01 	l.movhi r3,0x1
    7650:	e0 e7 10 02 	l.sub r7,r7,r2
    7654:	e0 a5 10 00 	l.add r5,r5,r2
    7658:	a8 63 25 08 	l.ori r3,r3,0x2508
    765c:	84 47 00 08 	l.lwz r2,8(r7)
    7660:	e4 02 18 00 	l.sfeq r2,r3
    7664:	10 00 00 70 	l.bf 7824 <_free_r+0x248>
    7668:	15 00 00 00 	l.nop 0x0
    766c:	84 67 00 0c 	l.lwz r3,12(r7)
    7670:	d4 02 18 0c 	l.sw 12(r2),r3
    7674:	d4 03 10 08 	l.sw 8(r3),r2
    7678:	e0 46 20 00 	l.add r2,r6,r4
    767c:	84 42 00 04 	l.lwz r2,4(r2)
    7680:	a4 42 00 01 	l.andi r2,r2,0x1
    7684:	bc 02 00 00 	l.sfeqi r2,0
    7688:	0c 00 00 11 	l.bnf 76cc <_free_r+0xf0>
    768c:	a8 65 00 01 	l.ori r3,r5,0x1
    7690:	e0 a5 20 00 	l.add r5,r5,r4
    7694:	18 80 00 01 	l.movhi r4,0x1
    7698:	84 46 00 08 	l.lwz r2,8(r6)
    769c:	a8 84 25 08 	l.ori r4,r4,0x2508
    76a0:	e4 02 20 00 	l.sfeq r2,r4
    76a4:	10 00 00 81 	l.bf 78a8 <_free_r+0x2cc>
    76a8:	a8 85 00 01 	l.ori r4,r5,0x1
    76ac:	84 86 00 0c 	l.lwz r4,12(r6)
    76b0:	a8 65 00 01 	l.ori r3,r5,0x1
    76b4:	d4 02 20 0c 	l.sw 12(r2),r4
    76b8:	d4 04 10 08 	l.sw 8(r4),r2
    76bc:	e0 47 28 00 	l.add r2,r7,r5
    76c0:	d4 07 18 04 	l.sw 4(r7),r3
    76c4:	00 00 00 05 	l.j 76d8 <_free_r+0xfc>
    76c8:	d4 02 28 00 	l.sw 0(r2),r5
    76cc:	e0 47 28 00 	l.add r2,r7,r5
    76d0:	d4 07 18 04 	l.sw 4(r7),r3
    76d4:	d4 02 28 00 	l.sw 0(r2),r5
    76d8:	bc 45 01 ff 	l.sfgtui r5,511
    76dc:	10 00 00 1b 	l.bf 7748 <_free_r+0x16c>
    76e0:	b8 45 00 49 	l.srli r2,r5,0x9
    76e4:	b8 a5 00 43 	l.srli r5,r5,0x3
    76e8:	9c 80 00 01 	l.addi r4,r0,1
    76ec:	84 68 00 04 	l.lwz r3,4(r8)
    76f0:	e0 45 28 00 	l.add r2,r5,r5
    76f4:	b8 a5 00 82 	l.srai r5,r5,0x2
    76f8:	b8 42 00 02 	l.slli r2,r2,0x2
    76fc:	e0 a4 28 08 	l.sll r5,r4,r5
    7700:	18 80 00 01 	l.movhi r4,0x1
    7704:	a8 84 25 00 	l.ori r4,r4,0x2500
    7708:	e0 a5 18 04 	l.or r5,r5,r3
    770c:	e0 42 20 00 	l.add r2,r2,r4
    7710:	d4 08 28 04 	l.sw 4(r8),r5
    7714:	84 82 00 08 	l.lwz r4,8(r2)
    7718:	d4 07 10 0c 	l.sw 12(r7),r2
    771c:	d4 07 20 08 	l.sw 8(r7),r4
    7720:	d4 02 38 08 	l.sw 8(r2),r7
    7724:	d4 04 38 0c 	l.sw 12(r4),r7
    7728:	04 00 05 53 	l.jal 8c74 <__malloc_unlock>
    772c:	a8 6e 00 00 	l.ori r3,r14,0x0
    7730:	9c 21 00 10 	l.addi r1,r1,16
    7734:	85 21 ff fc 	l.lwz r9,-4(r1)
    7738:	84 21 ff f0 	l.lwz r1,-16(r1)
    773c:	84 41 ff f4 	l.lwz r2,-12(r1)
    7740:	44 00 48 00 	l.jr r9
    7744:	85 c1 ff f8 	l.lwz r14,-8(r1)
    7748:	bc 42 00 04 	l.sfgtui r2,4
    774c:	10 00 00 4a 	l.bf 7874 <_free_r+0x298>
    7750:	bc 42 00 14 	l.sfgtui r2,20
    7754:	b8 45 00 46 	l.srli r2,r5,0x6
    7758:	9c 62 00 38 	l.addi r3,r2,56
    775c:	e0 43 18 00 	l.add r2,r3,r3
    7760:	19 60 00 01 	l.movhi r11,0x1
    7764:	b8 42 00 02 	l.slli r2,r2,0x2
    7768:	a9 6b 25 00 	l.ori r11,r11,0x2500
    776c:	e0 42 58 00 	l.add r2,r2,r11
    7770:	84 82 00 08 	l.lwz r4,8(r2)
    7774:	e4 24 10 00 	l.sfne r4,r2
    7778:	0c 00 00 44 	l.bnf 7888 <_free_r+0x2ac>
    777c:	15 00 00 00 	l.nop 0x0
    7780:	84 c4 00 04 	l.lwz r6,4(r4)
    7784:	9c 60 ff fc 	l.addi r3,r0,-4
    7788:	e0 c6 18 03 	l.and r6,r6,r3
    778c:	e4 46 28 00 	l.sfgtu r6,r5
    7790:	0c 00 00 06 	l.bnf 77a8 <_free_r+0x1cc>
    7794:	15 00 00 00 	l.nop 0x0
    7798:	84 84 00 08 	l.lwz r4,8(r4)
    779c:	e4 22 20 00 	l.sfne r2,r4
    77a0:	13 ff ff f8 	l.bf 7780 <_free_r+0x1a4>
    77a4:	15 00 00 00 	l.nop 0x0
    77a8:	84 a4 00 0c 	l.lwz r5,12(r4)
    77ac:	d4 07 28 0c 	l.sw 12(r7),r5
    77b0:	d4 07 20 08 	l.sw 8(r7),r4
    77b4:	d4 05 38 08 	l.sw 8(r5),r7
    77b8:	03 ff ff dc 	l.j 7728 <_free_r+0x14c>
    77bc:	d4 04 38 0c 	l.sw 12(r4),r7
    77c0:	bc 23 00 00 	l.sfnei r3,0
    77c4:	10 00 00 09 	l.bf 77e8 <_free_r+0x20c>
    77c8:	e0 a4 28 00 	l.add r5,r4,r5
    77cc:	84 42 ff f8 	l.lwz r2,-8(r2)
    77d0:	e0 e7 10 02 	l.sub r7,r7,r2
    77d4:	e0 a5 10 00 	l.add r5,r5,r2
    77d8:	84 67 00 08 	l.lwz r3,8(r7)
    77dc:	84 47 00 0c 	l.lwz r2,12(r7)
    77e0:	d4 03 10 0c 	l.sw 12(r3),r2
    77e4:	d4 02 18 08 	l.sw 8(r2),r3
    77e8:	18 40 00 01 	l.movhi r2,0x1
    77ec:	a8 65 00 01 	l.ori r3,r5,0x1
    77f0:	a8 42 24 fc 	l.ori r2,r2,0x24fc
    77f4:	d4 07 18 04 	l.sw 4(r7),r3
    77f8:	84 42 00 00 	l.lwz r2,0(r2)
    77fc:	e4 65 10 00 	l.sfgeu r5,r2
    7800:	0f ff ff ca 	l.bnf 7728 <_free_r+0x14c>
    7804:	d4 08 38 08 	l.sw 8(r8),r7
    7808:	18 40 00 01 	l.movhi r2,0x1
    780c:	a8 6e 00 00 	l.ori r3,r14,0x0
    7810:	a8 42 2d 94 	l.ori r2,r2,0x2d94
    7814:	07 ff ff 1f 	l.jal 7490 <_malloc_trim_r>
    7818:	84 82 00 00 	l.lwz r4,0(r2)
    781c:	03 ff ff c3 	l.j 7728 <_free_r+0x14c>
    7820:	15 00 00 00 	l.nop 0x0
    7824:	e0 46 20 00 	l.add r2,r6,r4
    7828:	84 42 00 04 	l.lwz r2,4(r2)
    782c:	a4 42 00 01 	l.andi r2,r2,0x1
    7830:	bc 02 00 00 	l.sfeqi r2,0
    7834:	0c 00 00 0c 	l.bnf 7864 <_free_r+0x288>
    7838:	e0 47 28 00 	l.add r2,r7,r5
    783c:	84 46 00 0c 	l.lwz r2,12(r6)
    7840:	84 66 00 08 	l.lwz r3,8(r6)
    7844:	e0 85 20 00 	l.add r4,r5,r4
    7848:	d4 03 10 0c 	l.sw 12(r3),r2
    784c:	a8 a4 00 01 	l.ori r5,r4,0x1
    7850:	d4 02 18 08 	l.sw 8(r2),r3
    7854:	e0 47 20 00 	l.add r2,r7,r4
    7858:	d4 07 28 04 	l.sw 4(r7),r5
    785c:	03 ff ff b3 	l.j 7728 <_free_r+0x14c>
    7860:	d4 02 20 00 	l.sw 0(r2),r4
    7864:	a8 65 00 01 	l.ori r3,r5,0x1
    7868:	d4 07 18 04 	l.sw 4(r7),r3
    786c:	03 ff ff af 	l.j 7728 <_free_r+0x14c>
    7870:	d4 02 28 00 	l.sw 0(r2),r5
    7874:	10 00 00 15 	l.bf 78c8 <_free_r+0x2ec>
    7878:	bc 42 00 54 	l.sfgtui r2,84
    787c:	9c 62 00 5b 	l.addi r3,r2,91
    7880:	03 ff ff b8 	l.j 7760 <_free_r+0x184>
    7884:	e0 43 18 00 	l.add r2,r3,r3
    7888:	b8 43 00 82 	l.srai r2,r3,0x2
    788c:	9c 60 00 01 	l.addi r3,r0,1
    7890:	84 c8 00 04 	l.lwz r6,4(r8)
    7894:	e0 43 10 08 	l.sll r2,r3,r2
    7898:	a8 a4 00 00 	l.ori r5,r4,0x0
    789c:	e0 42 30 04 	l.or r2,r2,r6
    78a0:	03 ff ff c3 	l.j 77ac <_free_r+0x1d0>
    78a4:	d4 08 10 04 	l.sw 4(r8),r2
    78a8:	d4 08 38 14 	l.sw 20(r8),r7
    78ac:	d4 08 38 10 	l.sw 16(r8),r7
    78b0:	e0 67 28 00 	l.add r3,r7,r5
    78b4:	d4 07 10 0c 	l.sw 12(r7),r2
    78b8:	d4 07 10 08 	l.sw 8(r7),r2
    78bc:	d4 07 20 04 	l.sw 4(r7),r4
    78c0:	03 ff ff 9a 	l.j 7728 <_free_r+0x14c>
    78c4:	d4 03 28 00 	l.sw 0(r3),r5
    78c8:	10 00 00 06 	l.bf 78e0 <_free_r+0x304>
    78cc:	bc 42 01 54 	l.sfgtui r2,340
    78d0:	b8 45 00 4c 	l.srli r2,r5,0xc
    78d4:	9c 62 00 6e 	l.addi r3,r2,110
    78d8:	03 ff ff a2 	l.j 7760 <_free_r+0x184>
    78dc:	e0 43 18 00 	l.add r2,r3,r3
    78e0:	10 00 00 06 	l.bf 78f8 <_free_r+0x31c>
    78e4:	bc 42 05 54 	l.sfgtui r2,1364
    78e8:	b8 45 00 4f 	l.srli r2,r5,0xf
    78ec:	9c 62 00 77 	l.addi r3,r2,119
    78f0:	03 ff ff 9c 	l.j 7760 <_free_r+0x184>
    78f4:	e0 43 18 00 	l.add r2,r3,r3
    78f8:	10 00 00 06 	l.bf 7910 <_free_r+0x334>
    78fc:	15 00 00 00 	l.nop 0x0
    7900:	b8 45 00 52 	l.srli r2,r5,0x12
    7904:	9c 62 00 7c 	l.addi r3,r2,124
    7908:	03 ff ff 96 	l.j 7760 <_free_r+0x184>
    790c:	e0 43 18 00 	l.add r2,r3,r3
    7910:	9c 40 00 fc 	l.addi r2,r0,252
    7914:	03 ff ff 93 	l.j 7760 <_free_r+0x184>
    7918:	9c 60 00 7e 	l.addi r3,r0,126

0000791c <_fwalk>:
    791c:	d7 e1 b7 f4 	l.sw -12(r1),r22
    7920:	9e c3 02 e0 	l.addi r22,r3,736
    7924:	d7 e1 4f fc 	l.sw -4(r1),r9
    7928:	d7 e1 0f e0 	l.sw -32(r1),r1
    792c:	d7 e1 17 e4 	l.sw -28(r1),r2
    7930:	d7 e1 77 e8 	l.sw -24(r1),r14
    7934:	d7 e1 97 ec 	l.sw -20(r1),r18
    7938:	d7 e1 a7 f0 	l.sw -16(r1),r20
    793c:	d7 e1 c7 f8 	l.sw -8(r1),r24
